ARM GAS  C:\Users\wa2n8\AppData\Local\Temp\cc6pyAqq.s 			page 1


   1              		.syntax unified
   2              		.cpu cortex-m3
   3              		.fpu softvfp
   4              		.eabi_attribute 20, 1
   5              		.eabi_attribute 21, 1
   6              		.eabi_attribute 23, 3
   7              		.eabi_attribute 24, 1
   8              		.eabi_attribute 25, 1
   9              		.eabi_attribute 26, 1
  10              		.eabi_attribute 30, 1
  11              		.eabi_attribute 34, 1
  12              		.eabi_attribute 18, 4
  13              		.thumb
  14              		.syntax unified
  15              		.file	"diskio.c"
  16              		.text
  17              	.Ltext0:
  18              		.cfi_sections	.debug_frame
  19              		.section	.text.disk_status,"ax",%progbits
  20              		.align	2
  21              		.global	disk_status
  22              		.thumb
  23              		.thumb_func
  24              		.type	disk_status, %function
  25              	disk_status:
  26              	.LFB0:
  27              		.file 1 "..\\..\\ff14\\source\\diskio.c"
   1:..\..\ff14\source/diskio.c **** /*-----------------------------------------------------------------------*/
   2:..\..\ff14\source/diskio.c **** /* Low level disk I/O module skeleton for FatFs     (C)ChaN, 2019        */
   3:..\..\ff14\source/diskio.c **** /*-----------------------------------------------------------------------*/
   4:..\..\ff14\source/diskio.c **** /* If a working storage control module is available, it should be        */
   5:..\..\ff14\source/diskio.c **** /* attached to the FatFs via a glue function rather than modifying it.   */
   6:..\..\ff14\source/diskio.c **** /* This is an example of glue functions to attach various exsisting      */
   7:..\..\ff14\source/diskio.c **** /* storage control modules to the FatFs module with a defined API.       */
   8:..\..\ff14\source/diskio.c **** /*-----------------------------------------------------------------------*/
   9:..\..\ff14\source/diskio.c **** 
  10:..\..\ff14\source/diskio.c **** #include "ff.h"			/* Obtains integer types */
  11:..\..\ff14\source/diskio.c **** #include "diskio.h"		/* Declarations of disk functions */
  12:..\..\ff14\source/diskio.c **** 
  13:..\..\ff14\source/diskio.c **** /* Definitions of physical drive number for each drive */
  14:..\..\ff14\source/diskio.c **** #define DEV_RAM		0	/* Example: Map Ramdisk to physical drive 0 */
  15:..\..\ff14\source/diskio.c **** #define DEV_MMC		1	/* Example: Map MMC/SD card to physical drive 1 */
  16:..\..\ff14\source/diskio.c **** #define DEV_USB		2	/* Example: Map USB MSD to physical drive 2 */
  17:..\..\ff14\source/diskio.c **** 
  18:..\..\ff14\source/diskio.c **** 
  19:..\..\ff14\source/diskio.c **** /*-----------------------------------------------------------------------*/
  20:..\..\ff14\source/diskio.c **** /* Get Drive Status                                                      */
  21:..\..\ff14\source/diskio.c **** /*-----------------------------------------------------------------------*/
  22:..\..\ff14\source/diskio.c **** 
  23:..\..\ff14\source/diskio.c **** DSTATUS disk_status (
  24:..\..\ff14\source/diskio.c **** 	BYTE pdrv		/* Physical drive nmuber to identify the drive */
  25:..\..\ff14\source/diskio.c **** )
  26:..\..\ff14\source/diskio.c **** {
  28              		.loc 1 26 0
  29              		.cfi_startproc
  30              		@ args = 0, pretend = 0, frame = 0
  31              		@ frame_needed = 0, uses_anonymous_args = 0
ARM GAS  C:\Users\wa2n8\AppData\Local\Temp\cc6pyAqq.s 			page 2


  32              	.LVL0:
  33 0000 08B5     		push	{r3, lr}
  34              		.cfi_def_cfa_offset 8
  35              		.cfi_offset 3, -8
  36              		.cfi_offset 14, -4
  27:..\..\ff14\source/diskio.c **** 	DSTATUS stat;
  28:..\..\ff14\source/diskio.c **** 	int result;
  29:..\..\ff14\source/diskio.c **** 
  30:..\..\ff14\source/diskio.c **** 	switch (pdrv) {
  37              		.loc 1 30 0
  38 0002 0128     		cmp	r0, #1
  39 0004 06D0     		beq	.L3
  40 0006 10B1     		cbz	r0, .L4
  41 0008 0228     		cmp	r0, #2
  42 000a 06D0     		beq	.L5
  43 000c 07E0     		b	.L2
  44              	.L4:
  45              	.LBB2:
  31:..\..\ff14\source/diskio.c **** 	case DEV_RAM :
  32:..\..\ff14\source/diskio.c **** 		result = RAM_disk_status();
  46              		.loc 1 32 0
  47 000e FFF7FEFF 		bl	RAM_disk_status
  48              	.LVL1:
  33:..\..\ff14\source/diskio.c **** 
  34:..\..\ff14\source/diskio.c **** 		// translate the reslut code here
  35:..\..\ff14\source/diskio.c **** 
  36:..\..\ff14\source/diskio.c **** 		return stat;
  49              		.loc 1 36 0
  50 0012 04E0     		b	.L2
  51              	.LVL2:
  52              	.L3:
  37:..\..\ff14\source/diskio.c **** 
  38:..\..\ff14\source/diskio.c **** 	case DEV_MMC :
  39:..\..\ff14\source/diskio.c **** 		result = MMC_disk_status();
  53              		.loc 1 39 0
  54 0014 FFF7FEFF 		bl	MMC_disk_status
  55              	.LVL3:
  40:..\..\ff14\source/diskio.c **** 
  41:..\..\ff14\source/diskio.c **** 		// translate the reslut code here
  42:..\..\ff14\source/diskio.c **** 
  43:..\..\ff14\source/diskio.c **** 		return stat;
  56              		.loc 1 43 0
  57 0018 01E0     		b	.L2
  58              	.LVL4:
  59              	.L5:
  44:..\..\ff14\source/diskio.c **** 
  45:..\..\ff14\source/diskio.c **** 	case DEV_USB :
  46:..\..\ff14\source/diskio.c **** 		result = USB_disk_status();
  60              		.loc 1 46 0
  61 001a FFF7FEFF 		bl	USB_disk_status
  62              	.LVL5:
  63              	.L2:
  64              	.LBE2:
  47:..\..\ff14\source/diskio.c **** 
  48:..\..\ff14\source/diskio.c **** 		// translate the reslut code here
  49:..\..\ff14\source/diskio.c **** 
  50:..\..\ff14\source/diskio.c **** 		return stat;
ARM GAS  C:\Users\wa2n8\AppData\Local\Temp\cc6pyAqq.s 			page 3


  51:..\..\ff14\source/diskio.c **** 	}
  52:..\..\ff14\source/diskio.c **** 	return STA_NOINIT;
  53:..\..\ff14\source/diskio.c **** }
  65              		.loc 1 53 0
  66 001e 0120     		movs	r0, #1
  67 0020 08BD     		pop	{r3, pc}
  68              		.cfi_endproc
  69              	.LFE0:
  70              		.size	disk_status, .-disk_status
  71 0022 00BF     		.section	.text.disk_initialize,"ax",%progbits
  72              		.align	2
  73              		.global	disk_initialize
  74              		.thumb
  75              		.thumb_func
  76              		.type	disk_initialize, %function
  77              	disk_initialize:
  78              	.LFB1:
  54:..\..\ff14\source/diskio.c **** 
  55:..\..\ff14\source/diskio.c **** 
  56:..\..\ff14\source/diskio.c **** 
  57:..\..\ff14\source/diskio.c **** /*-----------------------------------------------------------------------*/
  58:..\..\ff14\source/diskio.c **** /* Inidialize a Drive                                                    */
  59:..\..\ff14\source/diskio.c **** /*-----------------------------------------------------------------------*/
  60:..\..\ff14\source/diskio.c **** 
  61:..\..\ff14\source/diskio.c **** DSTATUS disk_initialize (
  62:..\..\ff14\source/diskio.c **** 	BYTE pdrv				/* Physical drive nmuber to identify the drive */
  63:..\..\ff14\source/diskio.c **** )
  64:..\..\ff14\source/diskio.c **** {
  79              		.loc 1 64 0
  80              		.cfi_startproc
  81              		@ args = 0, pretend = 0, frame = 0
  82              		@ frame_needed = 0, uses_anonymous_args = 0
  83              	.LVL6:
  84 0000 08B5     		push	{r3, lr}
  85              		.cfi_def_cfa_offset 8
  86              		.cfi_offset 3, -8
  87              		.cfi_offset 14, -4
  65:..\..\ff14\source/diskio.c **** 	DSTATUS stat;
  66:..\..\ff14\source/diskio.c **** 	int result;
  67:..\..\ff14\source/diskio.c **** 
  68:..\..\ff14\source/diskio.c **** 	switch (pdrv) {
  88              		.loc 1 68 0
  89 0002 0128     		cmp	r0, #1
  90 0004 06D0     		beq	.L9
  91 0006 10B1     		cbz	r0, .L10
  92 0008 0228     		cmp	r0, #2
  93 000a 06D0     		beq	.L11
  94 000c 07E0     		b	.L8
  95              	.L10:
  96              	.LBB3:
  69:..\..\ff14\source/diskio.c **** 	case DEV_RAM :
  70:..\..\ff14\source/diskio.c **** 		result = RAM_disk_initialize();
  97              		.loc 1 70 0
  98 000e FFF7FEFF 		bl	RAM_disk_initialize
  99              	.LVL7:
  71:..\..\ff14\source/diskio.c **** 
  72:..\..\ff14\source/diskio.c **** 		// translate the reslut code here
ARM GAS  C:\Users\wa2n8\AppData\Local\Temp\cc6pyAqq.s 			page 4


  73:..\..\ff14\source/diskio.c **** 
  74:..\..\ff14\source/diskio.c **** 		return stat;
 100              		.loc 1 74 0
 101 0012 04E0     		b	.L8
 102              	.LVL8:
 103              	.L9:
  75:..\..\ff14\source/diskio.c **** 
  76:..\..\ff14\source/diskio.c **** 	case DEV_MMC :
  77:..\..\ff14\source/diskio.c **** 		result = MMC_disk_initialize();
 104              		.loc 1 77 0
 105 0014 FFF7FEFF 		bl	MMC_disk_initialize
 106              	.LVL9:
  78:..\..\ff14\source/diskio.c **** 
  79:..\..\ff14\source/diskio.c **** 		// translate the reslut code here
  80:..\..\ff14\source/diskio.c **** 
  81:..\..\ff14\source/diskio.c **** 		return stat;
 107              		.loc 1 81 0
 108 0018 01E0     		b	.L8
 109              	.LVL10:
 110              	.L11:
  82:..\..\ff14\source/diskio.c **** 
  83:..\..\ff14\source/diskio.c **** 	case DEV_USB :
  84:..\..\ff14\source/diskio.c **** 		result = USB_disk_initialize();
 111              		.loc 1 84 0
 112 001a FFF7FEFF 		bl	USB_disk_initialize
 113              	.LVL11:
 114              	.L8:
 115              	.LBE3:
  85:..\..\ff14\source/diskio.c **** 
  86:..\..\ff14\source/diskio.c **** 		// translate the reslut code here
  87:..\..\ff14\source/diskio.c **** 
  88:..\..\ff14\source/diskio.c **** 		return stat;
  89:..\..\ff14\source/diskio.c **** 	}
  90:..\..\ff14\source/diskio.c **** 	return STA_NOINIT;
  91:..\..\ff14\source/diskio.c **** }
 116              		.loc 1 91 0
 117 001e 0120     		movs	r0, #1
 118 0020 08BD     		pop	{r3, pc}
 119              		.cfi_endproc
 120              	.LFE1:
 121              		.size	disk_initialize, .-disk_initialize
 122 0022 00BF     		.section	.text.disk_read,"ax",%progbits
 123              		.align	2
 124              		.global	disk_read
 125              		.thumb
 126              		.thumb_func
 127              		.type	disk_read, %function
 128              	disk_read:
 129              	.LFB2:
  92:..\..\ff14\source/diskio.c **** 
  93:..\..\ff14\source/diskio.c **** 
  94:..\..\ff14\source/diskio.c **** 
  95:..\..\ff14\source/diskio.c **** /*-----------------------------------------------------------------------*/
  96:..\..\ff14\source/diskio.c **** /* Read Sector(s)                                                        */
  97:..\..\ff14\source/diskio.c **** /*-----------------------------------------------------------------------*/
  98:..\..\ff14\source/diskio.c **** 
  99:..\..\ff14\source/diskio.c **** DRESULT disk_read (
ARM GAS  C:\Users\wa2n8\AppData\Local\Temp\cc6pyAqq.s 			page 5


 100:..\..\ff14\source/diskio.c **** 	BYTE pdrv,		/* Physical drive nmuber to identify the drive */
 101:..\..\ff14\source/diskio.c **** 	BYTE *buff,		/* Data buffer to store read data */
 102:..\..\ff14\source/diskio.c **** 	LBA_t sector,	/* Start sector in LBA */
 103:..\..\ff14\source/diskio.c **** 	UINT count		/* Number of sectors to read */
 104:..\..\ff14\source/diskio.c **** )
 105:..\..\ff14\source/diskio.c **** {
 130              		.loc 1 105 0
 131              		.cfi_startproc
 132              		@ args = 0, pretend = 0, frame = 0
 133              		@ frame_needed = 0, uses_anonymous_args = 0
 134              	.LVL12:
 135 0000 10B5     		push	{r4, lr}
 136              		.cfi_def_cfa_offset 8
 137              		.cfi_offset 4, -8
 138              		.cfi_offset 14, -4
 139 0002 0C46     		mov	r4, r1
 140 0004 1146     		mov	r1, r2
 141              	.LVL13:
 106:..\..\ff14\source/diskio.c **** 	DRESULT res;
 107:..\..\ff14\source/diskio.c **** 	int result;
 108:..\..\ff14\source/diskio.c **** 
 109:..\..\ff14\source/diskio.c **** 	switch (pdrv) {
 142              		.loc 1 109 0
 143 0006 0128     		cmp	r0, #1
 144 0008 08D0     		beq	.L15
 145 000a 10B1     		cbz	r0, .L16
 146 000c 0228     		cmp	r0, #2
 147 000e 0AD0     		beq	.L17
 148 0010 0DE0     		b	.L14
 149              	.L16:
 150              	.LBB4:
 110:..\..\ff14\source/diskio.c **** 	case DEV_RAM :
 111:..\..\ff14\source/diskio.c **** 		// translate the arguments here
 112:..\..\ff14\source/diskio.c **** 
 113:..\..\ff14\source/diskio.c **** 		result = RAM_disk_read(buff, sector, count);
 151              		.loc 1 113 0
 152 0012 1A46     		mov	r2, r3
 153              	.LVL14:
 154 0014 2046     		mov	r0, r4
 155              	.LVL15:
 156 0016 FFF7FEFF 		bl	RAM_disk_read
 157              	.LVL16:
 114:..\..\ff14\source/diskio.c **** 
 115:..\..\ff14\source/diskio.c **** 		// translate the reslut code here
 116:..\..\ff14\source/diskio.c **** 
 117:..\..\ff14\source/diskio.c **** 		return res;
 158              		.loc 1 117 0
 159 001a 08E0     		b	.L14
 160              	.LVL17:
 161              	.L15:
 118:..\..\ff14\source/diskio.c **** 
 119:..\..\ff14\source/diskio.c **** 	case DEV_MMC :
 120:..\..\ff14\source/diskio.c **** 		// translate the arguments here
 121:..\..\ff14\source/diskio.c **** 
 122:..\..\ff14\source/diskio.c **** 		result = MMC_disk_read(buff, sector, count);
 162              		.loc 1 122 0
 163 001c 1A46     		mov	r2, r3
ARM GAS  C:\Users\wa2n8\AppData\Local\Temp\cc6pyAqq.s 			page 6


 164 001e 2046     		mov	r0, r4
 165              	.LVL18:
 166 0020 FFF7FEFF 		bl	MMC_disk_read
 167              	.LVL19:
 123:..\..\ff14\source/diskio.c **** 
 124:..\..\ff14\source/diskio.c **** 		// translate the reslut code here
 125:..\..\ff14\source/diskio.c **** 
 126:..\..\ff14\source/diskio.c **** 		return res;
 168              		.loc 1 126 0
 169 0024 03E0     		b	.L14
 170              	.LVL20:
 171              	.L17:
 127:..\..\ff14\source/diskio.c **** 
 128:..\..\ff14\source/diskio.c **** 	case DEV_USB :
 129:..\..\ff14\source/diskio.c **** 		// translate the arguments here
 130:..\..\ff14\source/diskio.c **** 
 131:..\..\ff14\source/diskio.c **** 		result = USB_disk_read(buff, sector, count);
 172              		.loc 1 131 0
 173 0026 1A46     		mov	r2, r3
 174 0028 2046     		mov	r0, r4
 175              	.LVL21:
 176 002a FFF7FEFF 		bl	USB_disk_read
 177              	.LVL22:
 178              	.L14:
 179              	.LBE4:
 132:..\..\ff14\source/diskio.c **** 
 133:..\..\ff14\source/diskio.c **** 		// translate the reslut code here
 134:..\..\ff14\source/diskio.c **** 
 135:..\..\ff14\source/diskio.c **** 		return res;
 136:..\..\ff14\source/diskio.c **** 	}
 137:..\..\ff14\source/diskio.c **** 
 138:..\..\ff14\source/diskio.c **** 	return RES_PARERR;
 139:..\..\ff14\source/diskio.c **** }
 180              		.loc 1 139 0
 181 002e 0420     		movs	r0, #4
 182 0030 10BD     		pop	{r4, pc}
 183              		.cfi_endproc
 184              	.LFE2:
 185              		.size	disk_read, .-disk_read
 186 0032 00BF     		.section	.text.disk_write,"ax",%progbits
 187              		.align	2
 188              		.global	disk_write
 189              		.thumb
 190              		.thumb_func
 191              		.type	disk_write, %function
 192              	disk_write:
 193              	.LFB3:
 140:..\..\ff14\source/diskio.c **** 
 141:..\..\ff14\source/diskio.c **** 
 142:..\..\ff14\source/diskio.c **** 
 143:..\..\ff14\source/diskio.c **** /*-----------------------------------------------------------------------*/
 144:..\..\ff14\source/diskio.c **** /* Write Sector(s)                                                       */
 145:..\..\ff14\source/diskio.c **** /*-----------------------------------------------------------------------*/
 146:..\..\ff14\source/diskio.c **** 
 147:..\..\ff14\source/diskio.c **** #if FF_FS_READONLY == 0
 148:..\..\ff14\source/diskio.c **** 
 149:..\..\ff14\source/diskio.c **** DRESULT disk_write (
ARM GAS  C:\Users\wa2n8\AppData\Local\Temp\cc6pyAqq.s 			page 7


 150:..\..\ff14\source/diskio.c **** 	BYTE pdrv,			/* Physical drive nmuber to identify the drive */
 151:..\..\ff14\source/diskio.c **** 	const BYTE *buff,	/* Data to be written */
 152:..\..\ff14\source/diskio.c **** 	LBA_t sector,		/* Start sector in LBA */
 153:..\..\ff14\source/diskio.c **** 	UINT count			/* Number of sectors to write */
 154:..\..\ff14\source/diskio.c **** )
 155:..\..\ff14\source/diskio.c **** {
 194              		.loc 1 155 0
 195              		.cfi_startproc
 196              		@ args = 0, pretend = 0, frame = 0
 197              		@ frame_needed = 0, uses_anonymous_args = 0
 198              	.LVL23:
 199 0000 10B5     		push	{r4, lr}
 200              		.cfi_def_cfa_offset 8
 201              		.cfi_offset 4, -8
 202              		.cfi_offset 14, -4
 203 0002 0C46     		mov	r4, r1
 204 0004 1146     		mov	r1, r2
 205              	.LVL24:
 156:..\..\ff14\source/diskio.c **** 	DRESULT res;
 157:..\..\ff14\source/diskio.c **** 	int result;
 158:..\..\ff14\source/diskio.c **** 
 159:..\..\ff14\source/diskio.c **** 	switch (pdrv) {
 206              		.loc 1 159 0
 207 0006 0128     		cmp	r0, #1
 208 0008 08D0     		beq	.L21
 209 000a 10B1     		cbz	r0, .L22
 210 000c 0228     		cmp	r0, #2
 211 000e 0AD0     		beq	.L23
 212 0010 0DE0     		b	.L20
 213              	.L22:
 214              	.LBB5:
 160:..\..\ff14\source/diskio.c **** 	case DEV_RAM :
 161:..\..\ff14\source/diskio.c **** 		// translate the arguments here
 162:..\..\ff14\source/diskio.c **** 
 163:..\..\ff14\source/diskio.c **** 		result = RAM_disk_write(buff, sector, count);
 215              		.loc 1 163 0
 216 0012 1A46     		mov	r2, r3
 217              	.LVL25:
 218 0014 2046     		mov	r0, r4
 219              	.LVL26:
 220 0016 FFF7FEFF 		bl	RAM_disk_write
 221              	.LVL27:
 164:..\..\ff14\source/diskio.c **** 
 165:..\..\ff14\source/diskio.c **** 		// translate the reslut code here
 166:..\..\ff14\source/diskio.c **** 
 167:..\..\ff14\source/diskio.c **** 		return res;
 222              		.loc 1 167 0
 223 001a 08E0     		b	.L20
 224              	.LVL28:
 225              	.L21:
 168:..\..\ff14\source/diskio.c **** 
 169:..\..\ff14\source/diskio.c **** 	case DEV_MMC :
 170:..\..\ff14\source/diskio.c **** 		// translate the arguments here
 171:..\..\ff14\source/diskio.c **** 
 172:..\..\ff14\source/diskio.c **** 		result = MMC_disk_write(buff, sector, count);
 226              		.loc 1 172 0
 227 001c 1A46     		mov	r2, r3
ARM GAS  C:\Users\wa2n8\AppData\Local\Temp\cc6pyAqq.s 			page 8


 228 001e 2046     		mov	r0, r4
 229              	.LVL29:
 230 0020 FFF7FEFF 		bl	MMC_disk_write
 231              	.LVL30:
 173:..\..\ff14\source/diskio.c **** 
 174:..\..\ff14\source/diskio.c **** 		// translate the reslut code here
 175:..\..\ff14\source/diskio.c **** 
 176:..\..\ff14\source/diskio.c **** 		return res;
 232              		.loc 1 176 0
 233 0024 03E0     		b	.L20
 234              	.LVL31:
 235              	.L23:
 177:..\..\ff14\source/diskio.c **** 
 178:..\..\ff14\source/diskio.c **** 	case DEV_USB :
 179:..\..\ff14\source/diskio.c **** 		// translate the arguments here
 180:..\..\ff14\source/diskio.c **** 
 181:..\..\ff14\source/diskio.c **** 		result = USB_disk_write(buff, sector, count);
 236              		.loc 1 181 0
 237 0026 1A46     		mov	r2, r3
 238 0028 2046     		mov	r0, r4
 239              	.LVL32:
 240 002a FFF7FEFF 		bl	USB_disk_write
 241              	.LVL33:
 242              	.L20:
 243              	.LBE5:
 182:..\..\ff14\source/diskio.c **** 
 183:..\..\ff14\source/diskio.c **** 		// translate the reslut code here
 184:..\..\ff14\source/diskio.c **** 
 185:..\..\ff14\source/diskio.c **** 		return res;
 186:..\..\ff14\source/diskio.c **** 	}
 187:..\..\ff14\source/diskio.c **** 
 188:..\..\ff14\source/diskio.c **** 	return RES_PARERR;
 189:..\..\ff14\source/diskio.c **** }
 244              		.loc 1 189 0
 245 002e 0420     		movs	r0, #4
 246 0030 10BD     		pop	{r4, pc}
 247              		.cfi_endproc
 248              	.LFE3:
 249              		.size	disk_write, .-disk_write
 250 0032 00BF     		.section	.text.disk_ioctl,"ax",%progbits
 251              		.align	2
 252              		.global	disk_ioctl
 253              		.thumb
 254              		.thumb_func
 255              		.type	disk_ioctl, %function
 256              	disk_ioctl:
 257              	.LFB4:
 190:..\..\ff14\source/diskio.c **** 
 191:..\..\ff14\source/diskio.c **** #endif
 192:..\..\ff14\source/diskio.c **** 
 193:..\..\ff14\source/diskio.c **** 
 194:..\..\ff14\source/diskio.c **** /*-----------------------------------------------------------------------*/
 195:..\..\ff14\source/diskio.c **** /* Miscellaneous Functions                                               */
 196:..\..\ff14\source/diskio.c **** /*-----------------------------------------------------------------------*/
 197:..\..\ff14\source/diskio.c **** 
 198:..\..\ff14\source/diskio.c **** DRESULT disk_ioctl (
 199:..\..\ff14\source/diskio.c **** 	BYTE pdrv,		/* Physical drive nmuber (0..) */
ARM GAS  C:\Users\wa2n8\AppData\Local\Temp\cc6pyAqq.s 			page 9


 200:..\..\ff14\source/diskio.c **** 	BYTE cmd,		/* Control code */
 201:..\..\ff14\source/diskio.c **** 	void *buff		/* Buffer to send/receive control data */
 202:..\..\ff14\source/diskio.c **** )
 203:..\..\ff14\source/diskio.c **** {
 258              		.loc 1 203 0
 259              		.cfi_startproc
 260              		@ args = 0, pretend = 0, frame = 0
 261              		@ frame_needed = 0, uses_anonymous_args = 0
 262              		@ link register save eliminated.
 263              	.LVL34:
 204:..\..\ff14\source/diskio.c **** 	DRESULT res;
 205:..\..\ff14\source/diskio.c **** 	int result;
 206:..\..\ff14\source/diskio.c **** 
 207:..\..\ff14\source/diskio.c **** 	switch (pdrv) {
 208:..\..\ff14\source/diskio.c **** 	case DEV_RAM :
 209:..\..\ff14\source/diskio.c **** 
 210:..\..\ff14\source/diskio.c **** 		// Process of the command for the RAM drive
 211:..\..\ff14\source/diskio.c **** 
 212:..\..\ff14\source/diskio.c **** 		return res;
 213:..\..\ff14\source/diskio.c **** 
 214:..\..\ff14\source/diskio.c **** 	case DEV_MMC :
 215:..\..\ff14\source/diskio.c **** 
 216:..\..\ff14\source/diskio.c **** 		// Process of the command for the MMC/SD card
 217:..\..\ff14\source/diskio.c **** 
 218:..\..\ff14\source/diskio.c **** 		return res;
 219:..\..\ff14\source/diskio.c **** 
 220:..\..\ff14\source/diskio.c **** 	case DEV_USB :
 221:..\..\ff14\source/diskio.c **** 
 222:..\..\ff14\source/diskio.c **** 		// Process of the command the USB drive
 223:..\..\ff14\source/diskio.c **** 
 224:..\..\ff14\source/diskio.c **** 		return res;
 225:..\..\ff14\source/diskio.c **** 	}
 226:..\..\ff14\source/diskio.c **** 
 227:..\..\ff14\source/diskio.c **** 	return RES_PARERR;
 228:..\..\ff14\source/diskio.c **** }
 264              		.loc 1 228 0
 265 0000 0420     		movs	r0, #4
 266              	.LVL35:
 267 0002 7047     		bx	lr
 268              		.cfi_endproc
 269              	.LFE4:
 270              		.size	disk_ioctl, .-disk_ioctl
 271              		.text
 272              	.Letext0:
 273              		.file 2 "c:\\program files (x86)\\cypress\\psoc creator\\4.2\\psoc creator\\import\\gnu\\arm\\5.4.
 274              		.file 3 "c:\\program files (x86)\\cypress\\psoc creator\\4.2\\psoc creator\\import\\gnu\\arm\\5.4.
 275              		.file 4 "..\\..\\ff14\\source\\ff.h"
 276              		.file 5 "..\\..\\ff14\\source\\diskio.h"