ARM GAS  C:\Users\wa2n8\AppData\Local\Temp\ccuOGNYz.s 			page 1


   1              		.syntax unified
   2              		.cpu cortex-m3
   3              		.fpu softvfp
   4              		.eabi_attribute 20, 1
   5              		.eabi_attribute 21, 1
   6              		.eabi_attribute 23, 3
   7              		.eabi_attribute 24, 1
   8              		.eabi_attribute 25, 1
   9              		.eabi_attribute 26, 1
  10              		.eabi_attribute 30, 1
  11              		.eabi_attribute 34, 1
  12              		.eabi_attribute 18, 4
  13              		.thumb
  14              		.syntax unified
  15              		.file	"diskio.c"
  16              		.text
  17              	.Ltext0:
  18              		.cfi_sections	.debug_frame
  19              		.section	.text.init_spi,"ax",%progbits
  20              		.align	2
  21              		.thumb
  22              		.thumb_func
  23              		.type	init_spi, %function
  24              	init_spi:
  25              	.LFB63:
  26              		.file 1 "..\\..\\FatFs\\diskio.c"
   1:..\..\FatFs/diskio.c **** /*-----------------------------------------------------------------------*/
   2:..\..\FatFs/diskio.c **** /* Low level disk I/O module skeleton for FatFs     (C)ChaN, 2019        */
   3:..\..\FatFs/diskio.c **** /*-----------------------------------------------------------------------*/
   4:..\..\FatFs/diskio.c **** /* If a working storage control module is available, it should be        */
   5:..\..\FatFs/diskio.c **** /* attached to the FatFs via a glue function rather than modifying it.   */
   6:..\..\FatFs/diskio.c **** /* This is an example of glue functions to attach various exsisting      */
   7:..\..\FatFs/diskio.c **** /* storage control modules to the FatFs module with a defined API.       */
   8:..\..\FatFs/diskio.c **** /*-----------------------------------------------------------------------*/
   9:..\..\FatFs/diskio.c **** 
  10:..\..\FatFs/diskio.c **** #include "ff.h"			/* Obtains integer types */
  11:..\..\FatFs/diskio.c **** #include "diskio.h"		/* Declarations of disk functions */
  12:..\..\FatFs/diskio.c **** 
  13:..\..\FatFs/diskio.c **** #include "project.h"
  14:..\..\FatFs/diskio.c **** /*--------------------------------------------------------------------------
  15:..\..\FatFs/diskio.c **** 
  16:..\..\FatFs/diskio.c ****    Module Private Functions
  17:..\..\FatFs/diskio.c **** 
  18:..\..\FatFs/diskio.c **** ---------------------------------------------------------------------------*/
  19:..\..\FatFs/diskio.c **** #define FCLK_SLOW() {SD_Clock_SetDivider(160);}
  20:..\..\FatFs/diskio.c **** #define FCLK_FAST() {SD_Clock_SetDivider(1);}
  21:..\..\FatFs/diskio.c **** #define CS_HI() {SD_CS_Write(1);}
  22:..\..\FatFs/diskio.c **** #define CS_LOW() {SD_CS_Write(0);}
  23:..\..\FatFs/diskio.c **** 
  24:..\..\FatFs/diskio.c **** /* MMC/SD command */
  25:..\..\FatFs/diskio.c **** #define CMD0	(0)			/* GO_IDLE_STATE */
  26:..\..\FatFs/diskio.c **** #define CMD1	(1)			/* SEND_OP_COND (MMC) */
  27:..\..\FatFs/diskio.c **** #define	ACMD41	(0x80+41)	/* SEND_OP_COND (SDC) */
  28:..\..\FatFs/diskio.c **** #define CMD8	(8)			/* SEND_IF_COND */
  29:..\..\FatFs/diskio.c **** #define CMD9	(9)			/* SEND_CSD */
  30:..\..\FatFs/diskio.c **** #define CMD10	(10)		/* SEND_CID */
  31:..\..\FatFs/diskio.c **** #define CMD12	(12)		/* STOP_TRANSMISSION */
ARM GAS  C:\Users\wa2n8\AppData\Local\Temp\ccuOGNYz.s 			page 2


  32:..\..\FatFs/diskio.c **** #define ACMD13	(0x80+13)	/* SD_STATUS (SDC) */
  33:..\..\FatFs/diskio.c **** #define CMD16	(16)		/* SET_BLOCKLEN */
  34:..\..\FatFs/diskio.c **** #define CMD17	(17)		/* READ_SINGLE_BLOCK */
  35:..\..\FatFs/diskio.c **** #define CMD18	(18)		/* READ_MULTIPLE_BLOCK */
  36:..\..\FatFs/diskio.c **** #define CMD23	(23)		/* SET_BLOCK_COUNT (MMC) */
  37:..\..\FatFs/diskio.c **** #define	ACMD23	(0x80+23)	/* SET_WR_BLK_ERASE_COUNT (SDC) */
  38:..\..\FatFs/diskio.c **** #define CMD24	(24)		/* WRITE_BLOCK */
  39:..\..\FatFs/diskio.c **** #define CMD25	(25)		/* WRITE_MULTIPLE_BLOCK */
  40:..\..\FatFs/diskio.c **** #define CMD32	(32)		/* ERASE_ER_BLK_START */
  41:..\..\FatFs/diskio.c **** #define CMD33	(33)		/* ERASE_ER_BLK_END */
  42:..\..\FatFs/diskio.c **** #define CMD38	(38)		/* ERASE */
  43:..\..\FatFs/diskio.c **** #define CMD55	(55)		/* APP_CMD */
  44:..\..\FatFs/diskio.c **** #define CMD58	(58)		/* READ_OCR */
  45:..\..\FatFs/diskio.c **** 
  46:..\..\FatFs/diskio.c **** 
  47:..\..\FatFs/diskio.c **** static volatile
  48:..\..\FatFs/diskio.c **** DSTATUS Stat = STA_NOINIT;	/* Physical drive status */
  49:..\..\FatFs/diskio.c **** 
  50:..\..\FatFs/diskio.c **** static
  51:..\..\FatFs/diskio.c **** BYTE CardType;			/* Card type flags */
  52:..\..\FatFs/diskio.c **** 
  53:..\..\FatFs/diskio.c **** /*-----------------------------------------------------------------------*/
  54:..\..\FatFs/diskio.c **** /* SPI Function                                                          */
  55:..\..\FatFs/diskio.c **** /*-----------------------------------------------------------------------*/
  56:..\..\FatFs/diskio.c **** static
  57:..\..\FatFs/diskio.c **** void init_spi (void)
  58:..\..\FatFs/diskio.c **** {
  27              		.loc 1 58 0
  28              		.cfi_startproc
  29              		@ args = 0, pretend = 0, frame = 0
  30              		@ frame_needed = 0, uses_anonymous_args = 0
  31 0000 08B5     		push	{r3, lr}
  32              		.cfi_def_cfa_offset 8
  33              		.cfi_offset 3, -8
  34              		.cfi_offset 14, -4
  59:..\..\FatFs/diskio.c ****     //FCLK_SLOW();                //set to slow clock
  60:..\..\FatFs/diskio.c ****     CS_HI();
  35              		.loc 1 60 0
  36 0002 0120     		movs	r0, #1
  37 0004 FFF7FEFF 		bl	SD_CS_Write
  38              	.LVL0:
  61:..\..\FatFs/diskio.c **** 	CyDelay(10);
  39              		.loc 1 61 0
  40 0008 0A20     		movs	r0, #10
  41 000a FFF7FEFF 		bl	CyDelay
  42              	.LVL1:
  43 000e 08BD     		pop	{r3, pc}
  44              		.cfi_endproc
  45              	.LFE63:
  46              		.size	init_spi, .-init_spi
  47              		.section	.text.xchg_spi,"ax",%progbits
  48              		.align	2
  49              		.thumb
  50              		.thumb_func
  51              		.type	xchg_spi, %function
  52              	xchg_spi:
  53              	.LFB64:
ARM GAS  C:\Users\wa2n8\AppData\Local\Temp\ccuOGNYz.s 			page 3


  62:..\..\FatFs/diskio.c **** }
  63:..\..\FatFs/diskio.c **** 
  64:..\..\FatFs/diskio.c **** static
  65:..\..\FatFs/diskio.c **** BYTE xchg_spi (
  66:..\..\FatFs/diskio.c **** 	BYTE dat	/* Data to send */
  67:..\..\FatFs/diskio.c **** )
  68:..\..\FatFs/diskio.c **** {
  54              		.loc 1 68 0
  55              		.cfi_startproc
  56              		@ args = 0, pretend = 0, frame = 0
  57              		@ frame_needed = 0, uses_anonymous_args = 0
  58              	.LVL2:
  59 0000 08B5     		push	{r3, lr}
  60              		.cfi_def_cfa_offset 8
  61              		.cfi_offset 3, -8
  62              		.cfi_offset 14, -4
  69:..\..\FatFs/diskio.c ****     //SPIM_SD_ClearFIFO();
  70:..\..\FatFs/diskio.c ****     SPIM_SD_WriteTxData(dat);
  63              		.loc 1 70 0
  64 0002 FFF7FEFF 		bl	SPIM_SD_WriteTxData
  65              	.LVL3:
  66              	.L4:
  71:..\..\FatFs/diskio.c ****     while(!(SPIM_SD_ReadTxStatus() & SPIM_SD_STS_SPI_DONE));
  67              		.loc 1 71 0 discriminator 1
  68 0006 FFF7FEFF 		bl	SPIM_SD_ReadTxStatus
  69              	.LVL4:
  70 000a 10F0010F 		tst	r0, #1
  71 000e FAD0     		beq	.L4
  72:..\..\FatFs/diskio.c ****     //while (SPIM_SD_GetTxBufferSize());
  73:..\..\FatFs/diskio.c ****     return SPIM_SD_ReadRxData();
  72              		.loc 1 73 0
  73 0010 FFF7FEFF 		bl	SPIM_SD_ReadRxData
  74              	.LVL5:
  74:..\..\FatFs/diskio.c **** }
  75              		.loc 1 74 0
  76 0014 08BD     		pop	{r3, pc}
  77              		.cfi_endproc
  78              	.LFE64:
  79              		.size	xchg_spi, .-xchg_spi
  80 0016 00BF     		.section	.text.wait_ready,"ax",%progbits
  81              		.align	2
  82              		.thumb
  83              		.thumb_func
  84              		.type	wait_ready, %function
  85              	wait_ready:
  86              	.LFB67:
  75:..\..\FatFs/diskio.c **** 
  76:..\..\FatFs/diskio.c **** static
  77:..\..\FatFs/diskio.c **** void rcvr_spi_multi (
  78:..\..\FatFs/diskio.c **** 	BYTE *buff,		/* Pointer to data buffer */
  79:..\..\FatFs/diskio.c **** 	UINT btr		/* Number of bytes to receive (even number) */
  80:..\..\FatFs/diskio.c **** )
  81:..\..\FatFs/diskio.c **** {
  82:..\..\FatFs/diskio.c ****     for(UINT i=0;i<btr;i++){
  83:..\..\FatFs/diskio.c ****         buff[i] = xchg_spi(0xFF);
  84:..\..\FatFs/diskio.c ****     }
  85:..\..\FatFs/diskio.c **** }
ARM GAS  C:\Users\wa2n8\AppData\Local\Temp\ccuOGNYz.s 			page 4


  86:..\..\FatFs/diskio.c **** 
  87:..\..\FatFs/diskio.c **** static
  88:..\..\FatFs/diskio.c **** void xmit_spi_multi (
  89:..\..\FatFs/diskio.c **** 	const BYTE *buff,	/* Pointer to the data */
  90:..\..\FatFs/diskio.c **** 	UINT btx			/* Number of bytes to send (even number) */
  91:..\..\FatFs/diskio.c **** )
  92:..\..\FatFs/diskio.c **** {
  93:..\..\FatFs/diskio.c ****     for(UINT i=0;i<btx;i++){
  94:..\..\FatFs/diskio.c ****         xchg_spi(buff[i]);
  95:..\..\FatFs/diskio.c ****     }
  96:..\..\FatFs/diskio.c **** }
  97:..\..\FatFs/diskio.c **** 
  98:..\..\FatFs/diskio.c **** /*-----------------------------------------------------------------------*/
  99:..\..\FatFs/diskio.c **** /* Wait for card ready                                                   */
 100:..\..\FatFs/diskio.c **** /*-----------------------------------------------------------------------*/
 101:..\..\FatFs/diskio.c **** 
 102:..\..\FatFs/diskio.c **** static
 103:..\..\FatFs/diskio.c **** int wait_ready (	/* 1:Ready, 0:Timeout */
 104:..\..\FatFs/diskio.c **** 	UINT wt			/* Timeout [ms] */
 105:..\..\FatFs/diskio.c **** )
 106:..\..\FatFs/diskio.c **** {
  87              		.loc 1 106 0
  88              		.cfi_startproc
  89              		@ args = 0, pretend = 0, frame = 0
  90              		@ frame_needed = 0, uses_anonymous_args = 0
  91              	.LVL6:
  92 0000 38B5     		push	{r3, r4, r5, lr}
  93              		.cfi_def_cfa_offset 16
  94              		.cfi_offset 3, -16
  95              		.cfi_offset 4, -12
  96              		.cfi_offset 5, -8
  97              		.cfi_offset 14, -4
  98 0002 0546     		mov	r5, r0
  99              	.LVL7:
 100              	.LBB2:
 107:..\..\FatFs/diskio.c **** 	BYTE d;
 108:..\..\FatFs/diskio.c **** 
 109:..\..\FatFs/diskio.c **** 	for(UINT i=0;i<wt;i++){
 101              		.loc 1 109 0
 102 0004 0024     		movs	r4, #0
 103 0006 09E0     		b	.L7
 104              	.LVL8:
 105              	.L9:
 110:..\..\FatFs/diskio.c ****         d = xchg_spi(0xFF);
 106              		.loc 1 110 0
 107 0008 FF20     		movs	r0, #255
 108 000a FFF7FEFF 		bl	xchg_spi
 109              	.LVL9:
 111:..\..\FatFs/diskio.c ****         if(d == 0xFF){
 110              		.loc 1 111 0
 111 000e FF28     		cmp	r0, #255
 112 0010 08D0     		beq	.L10
 112:..\..\FatFs/diskio.c ****             return 1; /* Ready */
 113:..\..\FatFs/diskio.c ****         }
 114:..\..\FatFs/diskio.c ****         CyDelayUs(1000);
 113              		.loc 1 114 0 discriminator 2
 114 0012 4FF47A70 		mov	r0, #1000
ARM GAS  C:\Users\wa2n8\AppData\Local\Temp\ccuOGNYz.s 			page 5


 115              	.LVL10:
 116 0016 FFF7FEFF 		bl	CyDelayUs
 117              	.LVL11:
 109:..\..\FatFs/diskio.c ****         d = xchg_spi(0xFF);
 118              		.loc 1 109 0 discriminator 2
 119 001a 0134     		adds	r4, r4, #1
 120              	.LVL12:
 121              	.L7:
 109:..\..\FatFs/diskio.c ****         d = xchg_spi(0xFF);
 122              		.loc 1 109 0 is_stmt 0 discriminator 1
 123 001c AC42     		cmp	r4, r5
 124 001e F3D3     		bcc	.L9
 125              	.LBE2:
 115:..\..\FatFs/diskio.c ****     }
 116:..\..\FatFs/diskio.c **** 
 117:..\..\FatFs/diskio.c **** 	return 0; /* Time Out */
 126              		.loc 1 117 0 is_stmt 1
 127 0020 0020     		movs	r0, #0
 128              	.LBB3:
 129 0022 38BD     		pop	{r3, r4, r5, pc}
 130              	.LVL13:
 131              	.L10:
 112:..\..\FatFs/diskio.c ****         }
 132              		.loc 1 112 0
 133 0024 0120     		movs	r0, #1
 134              	.LVL14:
 135              	.LBE3:
 118:..\..\FatFs/diskio.c **** }
 136              		.loc 1 118 0
 137 0026 38BD     		pop	{r3, r4, r5, pc}
 138              		.cfi_endproc
 139              	.LFE67:
 140              		.size	wait_ready, .-wait_ready
 141              		.section	.text.deselect,"ax",%progbits
 142              		.align	2
 143              		.thumb
 144              		.thumb_func
 145              		.type	deselect, %function
 146              	deselect:
 147              	.LFB68:
 119:..\..\FatFs/diskio.c **** 
 120:..\..\FatFs/diskio.c **** /*-----------------------------------------------------------------------*/
 121:..\..\FatFs/diskio.c **** /* Deselect card and release SPI                                         */
 122:..\..\FatFs/diskio.c **** /*-----------------------------------------------------------------------*/
 123:..\..\FatFs/diskio.c **** 
 124:..\..\FatFs/diskio.c **** static
 125:..\..\FatFs/diskio.c **** void deselect (void)
 126:..\..\FatFs/diskio.c **** {
 148              		.loc 1 126 0
 149              		.cfi_startproc
 150              		@ args = 0, pretend = 0, frame = 0
 151              		@ frame_needed = 0, uses_anonymous_args = 0
 152 0000 08B5     		push	{r3, lr}
 153              		.cfi_def_cfa_offset 8
 154              		.cfi_offset 3, -8
 155              		.cfi_offset 14, -4
 127:..\..\FatFs/diskio.c **** 	CS_HI();
ARM GAS  C:\Users\wa2n8\AppData\Local\Temp\ccuOGNYz.s 			page 6


 156              		.loc 1 127 0
 157 0002 0120     		movs	r0, #1
 158 0004 FFF7FEFF 		bl	SD_CS_Write
 159              	.LVL15:
 128:..\..\FatFs/diskio.c **** 	xchg_spi(0xFF);	/* Dummy clock (force DO hi-z for multiple slave SPI) */
 160              		.loc 1 128 0
 161 0008 FF20     		movs	r0, #255
 162 000a FFF7FEFF 		bl	xchg_spi
 163              	.LVL16:
 164 000e 08BD     		pop	{r3, pc}
 165              		.cfi_endproc
 166              	.LFE68:
 167              		.size	deselect, .-deselect
 168              		.section	.text.select,"ax",%progbits
 169              		.align	2
 170              		.thumb
 171              		.thumb_func
 172              		.type	select, %function
 173              	select:
 174              	.LFB69:
 129:..\..\FatFs/diskio.c **** }
 130:..\..\FatFs/diskio.c **** 
 131:..\..\FatFs/diskio.c **** /*-----------------------------------------------------------------------*/
 132:..\..\FatFs/diskio.c **** /* Select card and wait for ready                                        */
 133:..\..\FatFs/diskio.c **** /*-----------------------------------------------------------------------*/
 134:..\..\FatFs/diskio.c **** 
 135:..\..\FatFs/diskio.c **** static
 136:..\..\FatFs/diskio.c **** int select (void)	/* 1:OK, 0:Timeout */
 137:..\..\FatFs/diskio.c **** {
 175              		.loc 1 137 0
 176              		.cfi_startproc
 177              		@ args = 0, pretend = 0, frame = 0
 178              		@ frame_needed = 0, uses_anonymous_args = 0
 179 0000 10B5     		push	{r4, lr}
 180              		.cfi_def_cfa_offset 8
 181              		.cfi_offset 4, -8
 182              		.cfi_offset 14, -4
 138:..\..\FatFs/diskio.c **** 	CS_LOW();
 183              		.loc 1 138 0
 184 0002 0020     		movs	r0, #0
 185 0004 FFF7FEFF 		bl	SD_CS_Write
 186              	.LVL17:
 139:..\..\FatFs/diskio.c **** 	xchg_spi(0xFF);	/* Dummy clock (force DO enabled) */
 187              		.loc 1 139 0
 188 0008 FF20     		movs	r0, #255
 189 000a FFF7FEFF 		bl	xchg_spi
 190              	.LVL18:
 140:..\..\FatFs/diskio.c **** 	if (wait_ready(500)) return 1;	/* Wait for card ready */
 191              		.loc 1 140 0
 192 000e 4FF4FA70 		mov	r0, #500
 193 0012 FFF7FEFF 		bl	wait_ready
 194              	.LVL19:
 195 0016 18B9     		cbnz	r0, .L16
 196 0018 0446     		mov	r4, r0
 141:..\..\FatFs/diskio.c **** 
 142:..\..\FatFs/diskio.c **** 	deselect();
 197              		.loc 1 142 0
ARM GAS  C:\Users\wa2n8\AppData\Local\Temp\ccuOGNYz.s 			page 7


 198 001a FFF7FEFF 		bl	deselect
 199              	.LVL20:
 143:..\..\FatFs/diskio.c **** 	return 0;	/* Timeout */
 200              		.loc 1 143 0
 201 001e 00E0     		b	.L15
 202              	.L16:
 140:..\..\FatFs/diskio.c **** 	if (wait_ready(500)) return 1;	/* Wait for card ready */
 203              		.loc 1 140 0
 204 0020 0124     		movs	r4, #1
 205              	.L15:
 144:..\..\FatFs/diskio.c **** }
 206              		.loc 1 144 0
 207 0022 2046     		mov	r0, r4
 208 0024 10BD     		pop	{r4, pc}
 209              		.cfi_endproc
 210              	.LFE69:
 211              		.size	select, .-select
 212 0026 00BF     		.section	.text.send_cmd,"ax",%progbits
 213              		.align	2
 214              		.thumb
 215              		.thumb_func
 216              		.type	send_cmd, %function
 217              	send_cmd:
 218              	.LFB72:
 145:..\..\FatFs/diskio.c **** 
 146:..\..\FatFs/diskio.c **** /*-----------------------------------------------------------------------*/
 147:..\..\FatFs/diskio.c **** /* Receive a data packet from the MMC                                    */
 148:..\..\FatFs/diskio.c **** /*-----------------------------------------------------------------------*/
 149:..\..\FatFs/diskio.c **** 
 150:..\..\FatFs/diskio.c **** static
 151:..\..\FatFs/diskio.c **** int rcvr_datablock (	/* 1:OK, 0:Error */
 152:..\..\FatFs/diskio.c **** 	BYTE *buff,			/* Data buffer */
 153:..\..\FatFs/diskio.c **** 	UINT btr			/* Data block length (byte) */
 154:..\..\FatFs/diskio.c **** )
 155:..\..\FatFs/diskio.c **** {
 156:..\..\FatFs/diskio.c **** 	BYTE token;
 157:..\..\FatFs/diskio.c ****     for(UINT i=0;i<200;i++){ /* 200 ms Time Out */
 158:..\..\FatFs/diskio.c ****         token = xchg_spi(0xFF);
 159:..\..\FatFs/diskio.c ****         if(token != 0xFF){
 160:..\..\FatFs/diskio.c ****             break;
 161:..\..\FatFs/diskio.c ****         }
 162:..\..\FatFs/diskio.c ****         CyDelayUs(1000);
 163:..\..\FatFs/diskio.c ****     }
 164:..\..\FatFs/diskio.c ****     
 165:..\..\FatFs/diskio.c ****     if(token != 0xFE){
 166:..\..\FatFs/diskio.c ****         return 0; /* Time Out */
 167:..\..\FatFs/diskio.c ****     }
 168:..\..\FatFs/diskio.c **** 
 169:..\..\FatFs/diskio.c **** 	rcvr_spi_multi(buff, btr);		/* Store trailing data to the buffer */
 170:..\..\FatFs/diskio.c **** 	xchg_spi(0xFF); xchg_spi(0xFF);			/* Discard CRC */
 171:..\..\FatFs/diskio.c **** 
 172:..\..\FatFs/diskio.c **** 	return 1;						/* Function succeeded */
 173:..\..\FatFs/diskio.c **** }
 174:..\..\FatFs/diskio.c **** 
 175:..\..\FatFs/diskio.c **** /*-----------------------------------------------------------------------*/
 176:..\..\FatFs/diskio.c **** /* Send a data packet to the MMC                                         */
 177:..\..\FatFs/diskio.c **** /*-----------------------------------------------------------------------*/
ARM GAS  C:\Users\wa2n8\AppData\Local\Temp\ccuOGNYz.s 			page 8


 178:..\..\FatFs/diskio.c **** 
 179:..\..\FatFs/diskio.c **** static
 180:..\..\FatFs/diskio.c **** int xmit_datablock (	/* 1:OK, 0:Failed */
 181:..\..\FatFs/diskio.c **** 	const BYTE *buff,	/* Ponter to 512 byte data to be sent */
 182:..\..\FatFs/diskio.c **** 	BYTE token			/* Token */
 183:..\..\FatFs/diskio.c **** )
 184:..\..\FatFs/diskio.c **** {
 185:..\..\FatFs/diskio.c **** 	BYTE resp;
 186:..\..\FatFs/diskio.c **** 	if (!wait_ready(500)) return 0;		/* Wait for card ready */
 187:..\..\FatFs/diskio.c **** 
 188:..\..\FatFs/diskio.c **** 	xchg_spi(token);					/* Send token */
 189:..\..\FatFs/diskio.c **** 	if (token != 0xFD) {				/* Send data if token is other than StopTran */
 190:..\..\FatFs/diskio.c **** 		xmit_spi_multi(buff, 512);		/* Data */
 191:..\..\FatFs/diskio.c **** 		xchg_spi(0xFF); xchg_spi(0xFF);	/* Dummy CRC */
 192:..\..\FatFs/diskio.c **** 
 193:..\..\FatFs/diskio.c **** 		resp = xchg_spi(0xFF);				/* Receive data resp */
 194:..\..\FatFs/diskio.c **** 		if ((resp & 0x1F) != 0x05)		/* Function fails if the data packet was not accepted */
 195:..\..\FatFs/diskio.c **** 			return 0;
 196:..\..\FatFs/diskio.c **** 	}
 197:..\..\FatFs/diskio.c **** 	return 1;
 198:..\..\FatFs/diskio.c **** }
 199:..\..\FatFs/diskio.c **** 
 200:..\..\FatFs/diskio.c **** 
 201:..\..\FatFs/diskio.c **** 
 202:..\..\FatFs/diskio.c **** /*-----------------------------------------------------------------------*/
 203:..\..\FatFs/diskio.c **** /* Send a command packet to the MMC                                      */
 204:..\..\FatFs/diskio.c **** /*-----------------------------------------------------------------------*/
 205:..\..\FatFs/diskio.c **** 
 206:..\..\FatFs/diskio.c **** static
 207:..\..\FatFs/diskio.c **** BYTE send_cmd (		/* Return value: R1 resp (bit7==1:Failed to send) */
 208:..\..\FatFs/diskio.c **** 	BYTE cmd,		/* Command index */
 209:..\..\FatFs/diskio.c **** 	DWORD arg		/* Argument */
 210:..\..\FatFs/diskio.c **** )
 211:..\..\FatFs/diskio.c **** {
 219              		.loc 1 211 0
 220              		.cfi_startproc
 221              		@ args = 0, pretend = 0, frame = 0
 222              		@ frame_needed = 0, uses_anonymous_args = 0
 223              	.LVL21:
 224 0000 38B5     		push	{r3, r4, r5, lr}
 225              		.cfi_def_cfa_offset 16
 226              		.cfi_offset 3, -16
 227              		.cfi_offset 4, -12
 228              		.cfi_offset 5, -8
 229              		.cfi_offset 14, -4
 230 0002 0446     		mov	r4, r0
 231 0004 0D46     		mov	r5, r1
 212:..\..\FatFs/diskio.c **** 	BYTE n, res;
 213:..\..\FatFs/diskio.c **** 
 214:..\..\FatFs/diskio.c **** 
 215:..\..\FatFs/diskio.c **** 	if (cmd & 0x80) {	/* Send a CMD55 prior to ACMD<n> */
 232              		.loc 1 215 0
 233 0006 10F0800F 		tst	r0, #128
 234 000a 07D0     		beq	.L19
 216:..\..\FatFs/diskio.c **** 		cmd &= 0x7F;
 235              		.loc 1 216 0
 236 000c 00F07F04 		and	r4, r0, #127
ARM GAS  C:\Users\wa2n8\AppData\Local\Temp\ccuOGNYz.s 			page 9


 237              	.LVL22:
 217:..\..\FatFs/diskio.c **** 		res = send_cmd(CMD55, 0);
 238              		.loc 1 217 0
 239 0010 0021     		movs	r1, #0
 240              	.LVL23:
 241 0012 3720     		movs	r0, #55
 242 0014 FFF7F4FF 		bl	send_cmd
 243              	.LVL24:
 218:..\..\FatFs/diskio.c **** 		if (res > 1) return res;
 244              		.loc 1 218 0
 245 0018 0128     		cmp	r0, #1
 246 001a 33D8     		bhi	.L20
 247              	.LVL25:
 248              	.L19:
 219:..\..\FatFs/diskio.c **** 	}
 220:..\..\FatFs/diskio.c **** 
 221:..\..\FatFs/diskio.c **** 	/* Select the card and wait for ready except to stop multiple block read */
 222:..\..\FatFs/diskio.c **** 	if (cmd != CMD12) {
 249              		.loc 1 222 0
 250 001c 0C2C     		cmp	r4, #12
 251 001e 04D0     		beq	.L21
 223:..\..\FatFs/diskio.c ****         deselect();
 252              		.loc 1 223 0
 253 0020 FFF7FEFF 		bl	deselect
 254              	.LVL26:
 224:..\..\FatFs/diskio.c **** 		if (!select()) return 0xFF;
 255              		.loc 1 224 0
 256 0024 FFF7FEFF 		bl	select
 257              	.LVL27:
 258 0028 58B3     		cbz	r0, .L27
 259              	.L21:
 225:..\..\FatFs/diskio.c **** 	}
 226:..\..\FatFs/diskio.c **** 
 227:..\..\FatFs/diskio.c **** 	/* Send command packet */
 228:..\..\FatFs/diskio.c **** 	xchg_spi(0x40 | cmd);				/* Start + command index */
 260              		.loc 1 228 0
 261 002a 44F04000 		orr	r0, r4, #64
 262 002e FFF7FEFF 		bl	xchg_spi
 263              	.LVL28:
 229:..\..\FatFs/diskio.c **** 	xchg_spi((BYTE)(arg >> 24));		/* Argument[31..24] */
 264              		.loc 1 229 0
 265 0032 280E     		lsrs	r0, r5, #24
 266 0034 FFF7FEFF 		bl	xchg_spi
 267              	.LVL29:
 230:..\..\FatFs/diskio.c **** 	xchg_spi((BYTE)(arg >> 16));		/* Argument[23..16] */
 268              		.loc 1 230 0
 269 0038 C5F30740 		ubfx	r0, r5, #16, #8
 270 003c FFF7FEFF 		bl	xchg_spi
 271              	.LVL30:
 231:..\..\FatFs/diskio.c **** 	xchg_spi((BYTE)(arg >> 8));			/* Argument[15..8] */
 272              		.loc 1 231 0
 273 0040 C5F30720 		ubfx	r0, r5, #8, #8
 274 0044 FFF7FEFF 		bl	xchg_spi
 275              	.LVL31:
 232:..\..\FatFs/diskio.c **** 	xchg_spi((BYTE)arg);				/* Argument[7..0] */
 276              		.loc 1 232 0
 277 0048 E8B2     		uxtb	r0, r5
ARM GAS  C:\Users\wa2n8\AppData\Local\Temp\ccuOGNYz.s 			page 10


 278 004a FFF7FEFF 		bl	xchg_spi
 279              	.LVL32:
 233:..\..\FatFs/diskio.c **** 	n = 0x01;							/* Dummy CRC + Stop */
 234:..\..\FatFs/diskio.c **** 	if (cmd == CMD0) n = 0x95;			/* Valid CRC for CMD0(0) */
 280              		.loc 1 234 0
 281 004e 0CB1     		cbz	r4, .L28
 233:..\..\FatFs/diskio.c **** 	n = 0x01;							/* Dummy CRC + Stop */
 282              		.loc 1 233 0
 283 0050 0120     		movs	r0, #1
 284 0052 00E0     		b	.L22
 285              	.L28:
 286              		.loc 1 234 0
 287 0054 9520     		movs	r0, #149
 288              	.L22:
 289              	.LVL33:
 235:..\..\FatFs/diskio.c **** 	if (cmd == CMD8) n = 0x87;			/* Valid CRC for CMD8(0x1AA) */
 290              		.loc 1 235 0
 291 0056 082C     		cmp	r4, #8
 292 0058 00D1     		bne	.L23
 293 005a 8720     		movs	r0, #135
 294              	.LVL34:
 295              	.L23:
 236:..\..\FatFs/diskio.c **** 	xchg_spi(n);
 296              		.loc 1 236 0
 297 005c FFF7FEFF 		bl	xchg_spi
 298              	.LVL35:
 237:..\..\FatFs/diskio.c **** 
 238:..\..\FatFs/diskio.c **** 	/* Receive command resp */
 239:..\..\FatFs/diskio.c **** 	if (cmd == CMD12) xchg_spi(0xFF);	/* Diacard following one byte when CMD12 */
 299              		.loc 1 239 0
 300 0060 0C2C     		cmp	r4, #12
 301 0062 02D1     		bne	.L24
 302              		.loc 1 239 0 is_stmt 0 discriminator 1
 303 0064 FF20     		movs	r0, #255
 304 0066 FFF7FEFF 		bl	xchg_spi
 305              	.LVL36:
 306              	.L24:
 235:..\..\FatFs/diskio.c **** 	xchg_spi(n);
 307              		.loc 1 235 0 is_stmt 1 discriminator 2
 308 006a 0A24     		movs	r4, #10
 309              	.LVL37:
 310              	.L25:
 240:..\..\FatFs/diskio.c **** 	n = 10;								/* Wait for response (10 bytes max) */
 241:..\..\FatFs/diskio.c **** 	do
 242:..\..\FatFs/diskio.c **** 		res = xchg_spi(0xFF);
 311              		.loc 1 242 0 discriminator 2
 312 006c FF20     		movs	r0, #255
 313 006e FFF7FEFF 		bl	xchg_spi
 314              	.LVL38:
 243:..\..\FatFs/diskio.c **** 	while ((res & 0x80) && --n);
 315              		.loc 1 243 0 discriminator 2
 316 0072 10F0800F 		tst	r0, #128
 317 0076 05D0     		beq	.L20
 318              		.loc 1 243 0 is_stmt 0 discriminator 1
 319 0078 631E     		subs	r3, r4, #1
 320              	.LVL39:
 321 007a 13F0FF04 		ands	r4, r3, #255
ARM GAS  C:\Users\wa2n8\AppData\Local\Temp\ccuOGNYz.s 			page 11


 322 007e F5D1     		bne	.L25
 323 0080 38BD     		pop	{r3, r4, r5, pc}
 324              	.LVL40:
 325              	.L27:
 224:..\..\FatFs/diskio.c **** 	}
 326              		.loc 1 224 0 is_stmt 1
 327 0082 FF20     		movs	r0, #255
 328              	.LVL41:
 329              	.L20:
 244:..\..\FatFs/diskio.c **** 
 245:..\..\FatFs/diskio.c **** 	return res;							/* Return received response */
 246:..\..\FatFs/diskio.c **** }
 330              		.loc 1 246 0
 331 0084 38BD     		pop	{r3, r4, r5, pc}
 332              		.cfi_endproc
 333              	.LFE72:
 334              		.size	send_cmd, .-send_cmd
 335 0086 00BF     		.section	.text.rcvr_spi_multi,"ax",%progbits
 336              		.align	2
 337              		.thumb
 338              		.thumb_func
 339              		.type	rcvr_spi_multi, %function
 340              	rcvr_spi_multi:
 341              	.LFB65:
  81:..\..\FatFs/diskio.c ****     for(UINT i=0;i<btr;i++){
 342              		.loc 1 81 0
 343              		.cfi_startproc
 344              		@ args = 0, pretend = 0, frame = 0
 345              		@ frame_needed = 0, uses_anonymous_args = 0
 346              	.LVL42:
 347 0000 70B5     		push	{r4, r5, r6, lr}
 348              		.cfi_def_cfa_offset 16
 349              		.cfi_offset 4, -16
 350              		.cfi_offset 5, -12
 351              		.cfi_offset 6, -8
 352              		.cfi_offset 14, -4
 353 0002 0646     		mov	r6, r0
 354 0004 0D46     		mov	r5, r1
 355              	.LVL43:
 356              	.LBB4:
  82:..\..\FatFs/diskio.c ****         buff[i] = xchg_spi(0xFF);
 357              		.loc 1 82 0
 358 0006 0024     		movs	r4, #0
 359 0008 04E0     		b	.L33
 360              	.LVL44:
 361              	.L34:
  83:..\..\FatFs/diskio.c ****     }
 362              		.loc 1 83 0 discriminator 3
 363 000a FF20     		movs	r0, #255
 364 000c FFF7FEFF 		bl	xchg_spi
 365              	.LVL45:
 366 0010 3055     		strb	r0, [r6, r4]
  82:..\..\FatFs/diskio.c ****         buff[i] = xchg_spi(0xFF);
 367              		.loc 1 82 0 discriminator 3
 368 0012 0134     		adds	r4, r4, #1
 369              	.LVL46:
 370              	.L33:
ARM GAS  C:\Users\wa2n8\AppData\Local\Temp\ccuOGNYz.s 			page 12


  82:..\..\FatFs/diskio.c ****         buff[i] = xchg_spi(0xFF);
 371              		.loc 1 82 0 is_stmt 0 discriminator 1
 372 0014 AC42     		cmp	r4, r5
 373 0016 F8D3     		bcc	.L34
 374              	.LBE4:
  85:..\..\FatFs/diskio.c **** 
 375              		.loc 1 85 0 is_stmt 1
 376 0018 70BD     		pop	{r4, r5, r6, pc}
 377              		.cfi_endproc
 378              	.LFE65:
 379              		.size	rcvr_spi_multi, .-rcvr_spi_multi
 380 001a 00BF     		.section	.text.rcvr_datablock,"ax",%progbits
 381              		.align	2
 382              		.thumb
 383              		.thumb_func
 384              		.type	rcvr_datablock, %function
 385              	rcvr_datablock:
 386              	.LFB70:
 155:..\..\FatFs/diskio.c **** 	BYTE token;
 387              		.loc 1 155 0
 388              		.cfi_startproc
 389              		@ args = 0, pretend = 0, frame = 0
 390              		@ frame_needed = 0, uses_anonymous_args = 0
 391              	.LVL47:
 392 0000 F8B5     		push	{r3, r4, r5, r6, r7, lr}
 393              		.cfi_def_cfa_offset 24
 394              		.cfi_offset 3, -24
 395              		.cfi_offset 4, -20
 396              		.cfi_offset 5, -16
 397              		.cfi_offset 6, -12
 398              		.cfi_offset 7, -8
 399              		.cfi_offset 14, -4
 400 0002 0646     		mov	r6, r0
 401 0004 0F46     		mov	r7, r1
 402              	.LVL48:
 403              	.LBB5:
 157:..\..\FatFs/diskio.c ****         token = xchg_spi(0xFF);
 404              		.loc 1 157 0
 405 0006 0024     		movs	r4, #0
 406 0008 0AE0     		b	.L37
 407              	.LVL49:
 408              	.L39:
 158:..\..\FatFs/diskio.c ****         if(token != 0xFF){
 409              		.loc 1 158 0
 410 000a FF20     		movs	r0, #255
 411 000c FFF7FEFF 		bl	xchg_spi
 412              	.LVL50:
 413 0010 0546     		mov	r5, r0
 414              	.LVL51:
 159:..\..\FatFs/diskio.c ****             break;
 415              		.loc 1 159 0
 416 0012 FF28     		cmp	r0, #255
 417 0014 06D1     		bne	.L38
 162:..\..\FatFs/diskio.c ****     }
 418              		.loc 1 162 0 discriminator 2
 419 0016 4FF47A70 		mov	r0, #1000
 420              	.LVL52:
ARM GAS  C:\Users\wa2n8\AppData\Local\Temp\ccuOGNYz.s 			page 13


 421 001a FFF7FEFF 		bl	CyDelayUs
 422              	.LVL53:
 157:..\..\FatFs/diskio.c ****         token = xchg_spi(0xFF);
 423              		.loc 1 157 0 discriminator 2
 424 001e 0134     		adds	r4, r4, #1
 425              	.LVL54:
 426              	.L37:
 157:..\..\FatFs/diskio.c ****         token = xchg_spi(0xFF);
 427              		.loc 1 157 0 is_stmt 0 discriminator 1
 428 0020 C72C     		cmp	r4, #199
 429 0022 F2D9     		bls	.L39
 430              	.LVL55:
 431              	.L38:
 432              	.LBE5:
 165:..\..\FatFs/diskio.c ****         return 0; /* Time Out */
 433              		.loc 1 165 0 is_stmt 1
 434 0024 FE2D     		cmp	r5, #254
 435 0026 0BD1     		bne	.L41
 169:..\..\FatFs/diskio.c **** 	xchg_spi(0xFF); xchg_spi(0xFF);			/* Discard CRC */
 436              		.loc 1 169 0
 437 0028 3946     		mov	r1, r7
 438 002a 3046     		mov	r0, r6
 439 002c FFF7FEFF 		bl	rcvr_spi_multi
 440              	.LVL56:
 170:..\..\FatFs/diskio.c **** 
 441              		.loc 1 170 0
 442 0030 FF20     		movs	r0, #255
 443 0032 FFF7FEFF 		bl	xchg_spi
 444              	.LVL57:
 445 0036 FF20     		movs	r0, #255
 446 0038 FFF7FEFF 		bl	xchg_spi
 447              	.LVL58:
 172:..\..\FatFs/diskio.c **** }
 448              		.loc 1 172 0
 449 003c 0120     		movs	r0, #1
 450 003e F8BD     		pop	{r3, r4, r5, r6, r7, pc}
 451              	.LVL59:
 452              	.L41:
 166:..\..\FatFs/diskio.c ****     }
 453              		.loc 1 166 0
 454 0040 0020     		movs	r0, #0
 173:..\..\FatFs/diskio.c **** 
 455              		.loc 1 173 0
 456 0042 F8BD     		pop	{r3, r4, r5, r6, r7, pc}
 457              		.cfi_endproc
 458              	.LFE70:
 459              		.size	rcvr_datablock, .-rcvr_datablock
 460              		.section	.text.xmit_spi_multi,"ax",%progbits
 461              		.align	2
 462              		.thumb
 463              		.thumb_func
 464              		.type	xmit_spi_multi, %function
 465              	xmit_spi_multi:
 466              	.LFB66:
  92:..\..\FatFs/diskio.c ****     for(UINT i=0;i<btx;i++){
 467              		.loc 1 92 0
 468              		.cfi_startproc
ARM GAS  C:\Users\wa2n8\AppData\Local\Temp\ccuOGNYz.s 			page 14


 469              		@ args = 0, pretend = 0, frame = 0
 470              		@ frame_needed = 0, uses_anonymous_args = 0
 471              	.LVL60:
 472 0000 70B5     		push	{r4, r5, r6, lr}
 473              		.cfi_def_cfa_offset 16
 474              		.cfi_offset 4, -16
 475              		.cfi_offset 5, -12
 476              		.cfi_offset 6, -8
 477              		.cfi_offset 14, -4
 478 0002 0646     		mov	r6, r0
 479 0004 0D46     		mov	r5, r1
 480              	.LVL61:
 481              	.LBB6:
  93:..\..\FatFs/diskio.c ****         xchg_spi(buff[i]);
 482              		.loc 1 93 0
 483 0006 0024     		movs	r4, #0
 484 0008 03E0     		b	.L44
 485              	.LVL62:
 486              	.L45:
  94:..\..\FatFs/diskio.c ****     }
 487              		.loc 1 94 0 discriminator 3
 488 000a 305D     		ldrb	r0, [r6, r4]	@ zero_extendqisi2
 489 000c FFF7FEFF 		bl	xchg_spi
 490              	.LVL63:
  93:..\..\FatFs/diskio.c ****         xchg_spi(buff[i]);
 491              		.loc 1 93 0 discriminator 3
 492 0010 0134     		adds	r4, r4, #1
 493              	.LVL64:
 494              	.L44:
  93:..\..\FatFs/diskio.c ****         xchg_spi(buff[i]);
 495              		.loc 1 93 0 is_stmt 0 discriminator 1
 496 0012 AC42     		cmp	r4, r5
 497 0014 F9D3     		bcc	.L45
 498              	.LBE6:
  96:..\..\FatFs/diskio.c **** 
 499              		.loc 1 96 0 is_stmt 1
 500 0016 70BD     		pop	{r4, r5, r6, pc}
 501              		.cfi_endproc
 502              	.LFE66:
 503              		.size	xmit_spi_multi, .-xmit_spi_multi
 504              		.section	.text.xmit_datablock,"ax",%progbits
 505              		.align	2
 506              		.thumb
 507              		.thumb_func
 508              		.type	xmit_datablock, %function
 509              	xmit_datablock:
 510              	.LFB71:
 184:..\..\FatFs/diskio.c **** 	BYTE resp;
 511              		.loc 1 184 0
 512              		.cfi_startproc
 513              		@ args = 0, pretend = 0, frame = 0
 514              		@ frame_needed = 0, uses_anonymous_args = 0
 515              	.LVL65:
 516 0000 38B5     		push	{r3, r4, r5, lr}
 517              		.cfi_def_cfa_offset 16
 518              		.cfi_offset 3, -16
 519              		.cfi_offset 4, -12
ARM GAS  C:\Users\wa2n8\AppData\Local\Temp\ccuOGNYz.s 			page 15


 520              		.cfi_offset 5, -8
 521              		.cfi_offset 14, -4
 522 0002 0546     		mov	r5, r0
 523 0004 0C46     		mov	r4, r1
 186:..\..\FatFs/diskio.c **** 
 524              		.loc 1 186 0
 525 0006 4FF4FA70 		mov	r0, #500
 526              	.LVL66:
 527 000a FFF7FEFF 		bl	wait_ready
 528              	.LVL67:
 529 000e 0346     		mov	r3, r0
 530 0010 D8B1     		cbz	r0, .L48
 188:..\..\FatFs/diskio.c **** 	if (token != 0xFD) {				/* Send data if token is other than StopTran */
 531              		.loc 1 188 0
 532 0012 2046     		mov	r0, r4
 533 0014 FFF7FEFF 		bl	xchg_spi
 534              	.LVL68:
 189:..\..\FatFs/diskio.c **** 		xmit_spi_multi(buff, 512);		/* Data */
 535              		.loc 1 189 0
 536 0018 FD2C     		cmp	r4, #253
 537 001a 13D0     		beq	.L49
 190:..\..\FatFs/diskio.c **** 		xchg_spi(0xFF); xchg_spi(0xFF);	/* Dummy CRC */
 538              		.loc 1 190 0
 539 001c 4FF40071 		mov	r1, #512
 540 0020 2846     		mov	r0, r5
 541 0022 FFF7FEFF 		bl	xmit_spi_multi
 542              	.LVL69:
 191:..\..\FatFs/diskio.c **** 
 543              		.loc 1 191 0
 544 0026 FF20     		movs	r0, #255
 545 0028 FFF7FEFF 		bl	xchg_spi
 546              	.LVL70:
 547 002c FF20     		movs	r0, #255
 548 002e FFF7FEFF 		bl	xchg_spi
 549              	.LVL71:
 193:..\..\FatFs/diskio.c **** 		if ((resp & 0x1F) != 0x05)		/* Function fails if the data packet was not accepted */
 550              		.loc 1 193 0
 551 0032 FF20     		movs	r0, #255
 552 0034 FFF7FEFF 		bl	xchg_spi
 553              	.LVL72:
 194:..\..\FatFs/diskio.c **** 			return 0;
 554              		.loc 1 194 0
 555 0038 00F01F00 		and	r0, r0, #31
 556              	.LVL73:
 557 003c 0528     		cmp	r0, #5
 558 003e 03D0     		beq	.L50
 195:..\..\FatFs/diskio.c **** 	}
 559              		.loc 1 195 0
 560 0040 0023     		movs	r3, #0
 561 0042 02E0     		b	.L48
 562              	.L49:
 197:..\..\FatFs/diskio.c **** }
 563              		.loc 1 197 0
 564 0044 0123     		movs	r3, #1
 565 0046 00E0     		b	.L48
 566              	.L50:
 567 0048 0123     		movs	r3, #1
ARM GAS  C:\Users\wa2n8\AppData\Local\Temp\ccuOGNYz.s 			page 16


 568              	.L48:
 198:..\..\FatFs/diskio.c **** 
 569              		.loc 1 198 0
 570 004a 1846     		mov	r0, r3
 571 004c 38BD     		pop	{r3, r4, r5, pc}
 572              		.cfi_endproc
 573              	.LFE71:
 574              		.size	xmit_datablock, .-xmit_datablock
 575 004e 00BF     		.section	.text.disk_status,"ax",%progbits
 576              		.align	2
 577              		.global	disk_status
 578              		.thumb
 579              		.thumb_func
 580              		.type	disk_status, %function
 581              	disk_status:
 582              	.LFB73:
 247:..\..\FatFs/diskio.c **** 
 248:..\..\FatFs/diskio.c **** 
 249:..\..\FatFs/diskio.c **** /*-----------------------------------------------------------------------*/
 250:..\..\FatFs/diskio.c **** /* Get Drive Status                                                      */
 251:..\..\FatFs/diskio.c **** /*-----------------------------------------------------------------------*/
 252:..\..\FatFs/diskio.c **** 
 253:..\..\FatFs/diskio.c **** DSTATUS disk_status (
 254:..\..\FatFs/diskio.c **** 	BYTE drv		/* Physical drive number (0) */
 255:..\..\FatFs/diskio.c **** )
 256:..\..\FatFs/diskio.c **** {
 583              		.loc 1 256 0
 584              		.cfi_startproc
 585              		@ args = 0, pretend = 0, frame = 0
 586              		@ frame_needed = 0, uses_anonymous_args = 0
 587              		@ link register save eliminated.
 588              	.LVL74:
 257:..\..\FatFs/diskio.c **** 	if (drv) return STA_NOINIT;		/* Supports only drive 0 */
 589              		.loc 1 257 0
 590 0000 18B9     		cbnz	r0, .L54
 258:..\..\FatFs/diskio.c **** 
 259:..\..\FatFs/diskio.c **** 	return Stat;	/* Return disk status */
 591              		.loc 1 259 0
 592 0002 034B     		ldr	r3, .L55
 593 0004 1878     		ldrb	r0, [r3]	@ zero_extendqisi2
 594              	.LVL75:
 595 0006 C0B2     		uxtb	r0, r0
 596 0008 7047     		bx	lr
 597              	.LVL76:
 598              	.L54:
 257:..\..\FatFs/diskio.c **** 	if (drv) return STA_NOINIT;		/* Supports only drive 0 */
 599              		.loc 1 257 0
 600 000a 0120     		movs	r0, #1
 601              	.LVL77:
 260:..\..\FatFs/diskio.c **** }
 602              		.loc 1 260 0
 603 000c 7047     		bx	lr
 604              	.L56:
 605 000e 00BF     		.align	2
 606              	.L55:
 607 0010 00000000 		.word	.LANCHOR0
 608              		.cfi_endproc
ARM GAS  C:\Users\wa2n8\AppData\Local\Temp\ccuOGNYz.s 			page 17


 609              	.LFE73:
 610              		.size	disk_status, .-disk_status
 611              		.section	.text.disk_initialize,"ax",%progbits
 612              		.align	2
 613              		.global	disk_initialize
 614              		.thumb
 615              		.thumb_func
 616              		.type	disk_initialize, %function
 617              	disk_initialize:
 618              	.LFB74:
 261:..\..\FatFs/diskio.c **** 
 262:..\..\FatFs/diskio.c **** 
 263:..\..\FatFs/diskio.c **** 
 264:..\..\FatFs/diskio.c **** /*-----------------------------------------------------------------------*/
 265:..\..\FatFs/diskio.c **** /* Inidialize a Drive                                                    */
 266:..\..\FatFs/diskio.c **** /*-----------------------------------------------------------------------*/
 267:..\..\FatFs/diskio.c **** 
 268:..\..\FatFs/diskio.c **** DSTATUS disk_initialize (
 269:..\..\FatFs/diskio.c **** 	BYTE drv		/* Physical drive number (0) */
 270:..\..\FatFs/diskio.c **** )
 271:..\..\FatFs/diskio.c **** {
 619              		.loc 1 271 0
 620              		.cfi_startproc
 621              		@ args = 0, pretend = 0, frame = 8
 622              		@ frame_needed = 0, uses_anonymous_args = 0
 623              	.LVL78:
 272:..\..\FatFs/diskio.c **** 	BYTE n, cmd, ty, ocr[4];
 273:..\..\FatFs/diskio.c ****     UINT timer;
 274:..\..\FatFs/diskio.c **** 
 275:..\..\FatFs/diskio.c **** 	if (drv) return STA_NOINIT;			/* Supports only drive 0 */
 624              		.loc 1 275 0
 625 0000 0028     		cmp	r0, #0
 626 0002 40F0AD80 		bne	.L77
 271:..\..\FatFs/diskio.c **** 	BYTE n, cmd, ty, ocr[4];
 627              		.loc 1 271 0
 628 0006 70B5     		push	{r4, r5, r6, lr}
 629              		.cfi_def_cfa_offset 16
 630              		.cfi_offset 4, -16
 631              		.cfi_offset 5, -12
 632              		.cfi_offset 6, -8
 633              		.cfi_offset 14, -4
 634 0008 82B0     		sub	sp, sp, #8
 635              		.cfi_def_cfa_offset 24
 276:..\..\FatFs/diskio.c **** 	init_spi();							/* Initialize SPI */
 636              		.loc 1 276 0
 637 000a FFF7FEFF 		bl	init_spi
 638              	.LVL79:
 277:..\..\FatFs/diskio.c **** 
 278:..\..\FatFs/diskio.c **** 	if (Stat & STA_NODISK) return Stat;	/* Is card existing in the soket? */
 639              		.loc 1 278 0
 640 000e 564B     		ldr	r3, .L90
 641 0010 1B78     		ldrb	r3, [r3]	@ zero_extendqisi2
 642 0012 13F0020F 		tst	r3, #2
 643 0016 03D0     		beq	.L59
 644              		.loc 1 278 0 is_stmt 0 discriminator 1
 645 0018 534B     		ldr	r3, .L90
 646 001a 1878     		ldrb	r0, [r3]	@ zero_extendqisi2
ARM GAS  C:\Users\wa2n8\AppData\Local\Temp\ccuOGNYz.s 			page 18


 647 001c C0B2     		uxtb	r0, r0
 648 001e A1E0     		b	.L58
 649              	.L59:
 279:..\..\FatFs/diskio.c **** 
 280:..\..\FatFs/diskio.c **** 	FCLK_SLOW();
 650              		.loc 1 280 0 is_stmt 1
 651 0020 0121     		movs	r1, #1
 652 0022 A020     		movs	r0, #160
 653 0024 FFF7FEFF 		bl	SD_Clock_SetDividerRegister
 654              	.LVL80:
 281:..\..\FatFs/diskio.c **** 	for (n = 10; n; n--) xchg_spi(0xFF);	/* Send 80 dummy clocks */
 655              		.loc 1 281 0
 656 0028 0A24     		movs	r4, #10
 657 002a 04E0     		b	.L60
 658              	.LVL81:
 659              	.L61:
 660              		.loc 1 281 0 is_stmt 0 discriminator 3
 661 002c FF20     		movs	r0, #255
 662 002e FFF7FEFF 		bl	xchg_spi
 663              	.LVL82:
 664 0032 013C     		subs	r4, r4, #1
 665              	.LVL83:
 666 0034 E4B2     		uxtb	r4, r4
 667              	.LVL84:
 668              	.L60:
 669              		.loc 1 281 0 discriminator 1
 670 0036 002C     		cmp	r4, #0
 671 0038 F8D1     		bne	.L61
 672              	.LVL85:
 282:..\..\FatFs/diskio.c **** 
 283:..\..\FatFs/diskio.c **** 	ty = 0;
 284:..\..\FatFs/diskio.c **** 	if (send_cmd(CMD0, 0) == 1) {			/* Put the card SPI/Idle state */
 673              		.loc 1 284 0 is_stmt 1
 674 003a 0021     		movs	r1, #0
 675 003c 0846     		mov	r0, r1
 676 003e FFF7FEFF 		bl	send_cmd
 677              	.LVL86:
 678 0042 0128     		cmp	r0, #1
 679 0044 6BD1     		bne	.L78
 285:..\..\FatFs/diskio.c **** 		if (send_cmd(CMD8, 0x1AA) == 1) {	/* SDv2? */
 680              		.loc 1 285 0
 681 0046 4FF4D571 		mov	r1, #426
 682 004a 0820     		movs	r0, #8
 683 004c FFF7FEFF 		bl	send_cmd
 684              	.LVL87:
 685 0050 0128     		cmp	r0, #1
 686 0052 42D1     		bne	.L87
 687 0054 09E0     		b	.L79
 688              	.LVL88:
 689              	.L65:
 286:..\..\FatFs/diskio.c **** 			for (n = 0; n < 4; n++) ocr[n] = xchg_spi(0xFF);	/* Get 32 bit return value of R7 resp */
 690              		.loc 1 286 0 discriminator 3
 691 0056 FF20     		movs	r0, #255
 692 0058 FFF7FEFF 		bl	xchg_spi
 693              	.LVL89:
 694 005c 02AB     		add	r3, sp, #8
 695 005e 2B44     		add	r3, r3, r5
ARM GAS  C:\Users\wa2n8\AppData\Local\Temp\ccuOGNYz.s 			page 19


 696 0060 03F8040C 		strb	r0, [r3, #-4]
 697 0064 0135     		adds	r5, r5, #1
 698              	.LVL90:
 699 0066 EDB2     		uxtb	r5, r5
 700              	.LVL91:
 701 0068 00E0     		b	.L63
 702              	.LVL92:
 703              	.L79:
 704 006a 2546     		mov	r5, r4
 705              	.LVL93:
 706              	.L63:
 707              		.loc 1 286 0 is_stmt 0 discriminator 1
 708 006c 032D     		cmp	r5, #3
 709 006e F2D9     		bls	.L65
 287:..\..\FatFs/diskio.c **** 			if (ocr[2] == 0x01 && ocr[3] == 0xAA) {				/* Is the card supports vcc of 2.7-3.6V? */
 710              		.loc 1 287 0 is_stmt 1
 711 0070 9DF80630 		ldrb	r3, [sp, #6]	@ zero_extendqisi2
 712 0074 012B     		cmp	r3, #1
 713 0076 54D1     		bne	.L80
 714              		.loc 1 287 0 is_stmt 0 discriminator 1
 715 0078 9DF80730 		ldrb	r3, [sp, #7]	@ zero_extendqisi2
 716 007c AA2B     		cmp	r3, #170
 717 007e 0DD0     		beq	.L81
 283:..\..\FatFs/diskio.c **** 	if (send_cmd(CMD0, 0) == 1) {			/* Put the card SPI/Idle state */
 718              		.loc 1 283 0 is_stmt 1
 719 0080 0025     		movs	r5, #0
 720              	.LVL94:
 721 0082 57E0     		b	.L62
 722              	.LVL95:
 723              	.L68:
 288:..\..\FatFs/diskio.c ****                 for(timer = 0;timer < 1000;timer++){ /* 1000 ms Time Out */
 289:..\..\FatFs/diskio.c ****                     if(send_cmd(ACMD41, 1UL << 30) == 0){
 724              		.loc 1 289 0
 725 0084 4FF08041 		mov	r1, #1073741824
 726 0088 A920     		movs	r0, #169
 727 008a FFF7FEFF 		bl	send_cmd
 728              	.LVL96:
 729 008e 48B1     		cbz	r0, .L67
 290:..\..\FatFs/diskio.c ****                         break;
 291:..\..\FatFs/diskio.c ****                     }
 292:..\..\FatFs/diskio.c ****                     CyDelayUs(1000);
 730              		.loc 1 292 0 discriminator 2
 731 0090 4FF47A70 		mov	r0, #1000
 732 0094 FFF7FEFF 		bl	CyDelayUs
 733              	.LVL97:
 288:..\..\FatFs/diskio.c ****                 for(timer = 0;timer < 1000;timer++){ /* 1000 ms Time Out */
 734              		.loc 1 288 0 discriminator 2
 735 0098 0135     		adds	r5, r5, #1
 736              	.LVL98:
 737 009a 00E0     		b	.L66
 738              	.LVL99:
 739              	.L81:
 740 009c 0025     		movs	r5, #0
 741              	.LVL100:
 742              	.L66:
 288:..\..\FatFs/diskio.c ****                 for(timer = 0;timer < 1000;timer++){ /* 1000 ms Time Out */
 743              		.loc 1 288 0 is_stmt 0 discriminator 1
ARM GAS  C:\Users\wa2n8\AppData\Local\Temp\ccuOGNYz.s 			page 20


 744 009e B5F57A7F 		cmp	r5, #1000
 745 00a2 EFD3     		bcc	.L68
 746              	.L67:
 293:..\..\FatFs/diskio.c ****                 }
 294:..\..\FatFs/diskio.c ****                 if(timer && send_cmd(CMD58, 0) == 0){
 747              		.loc 1 294 0 is_stmt 1
 748 00a4 002D     		cmp	r5, #0
 749 00a6 3ED0     		beq	.L82
 750              		.loc 1 294 0 is_stmt 0 discriminator 1
 751 00a8 0021     		movs	r1, #0
 752 00aa 3A20     		movs	r0, #58
 753 00ac FFF7FEFF 		bl	send_cmd
 754              	.LVL101:
 755 00b0 50B1     		cbz	r0, .L69
 283:..\..\FatFs/diskio.c **** 	if (send_cmd(CMD0, 0) == 1) {			/* Put the card SPI/Idle state */
 756              		.loc 1 283 0 is_stmt 1
 757 00b2 0025     		movs	r5, #0
 758              	.LVL102:
 759 00b4 3EE0     		b	.L62
 760              	.LVL103:
 761              	.L70:
 295:..\..\FatFs/diskio.c ****                     for (n = 0; n < 4; n++) ocr[n] = xchg_spi(0xFF);
 762              		.loc 1 295 0 discriminator 3
 763 00b6 FF20     		movs	r0, #255
 764 00b8 FFF7FEFF 		bl	xchg_spi
 765              	.LVL104:
 766 00bc 02AB     		add	r3, sp, #8
 767 00be 2344     		add	r3, r3, r4
 768 00c0 03F8040C 		strb	r0, [r3, #-4]
 769 00c4 0134     		adds	r4, r4, #1
 770              	.LVL105:
 771 00c6 E4B2     		uxtb	r4, r4
 772              	.LVL106:
 773              	.L69:
 774              		.loc 1 295 0 is_stmt 0 discriminator 1
 775 00c8 032C     		cmp	r4, #3
 776 00ca F4D9     		bls	.L70
 296:..\..\FatFs/diskio.c ****                     ty = (ocr[0] & 0x40) ? CT_SD2 | CT_BLOCK : CT_SD2;	/* Card id SDv2 */
 777              		.loc 1 296 0 is_stmt 1
 778 00cc 9DF80430 		ldrb	r3, [sp, #4]	@ zero_extendqisi2
 779 00d0 13F0400F 		tst	r3, #64
 780 00d4 29D0     		beq	.L83
 781 00d6 0C25     		movs	r5, #12
 782              	.LVL107:
 783 00d8 2CE0     		b	.L62
 784              	.L87:
 297:..\..\FatFs/diskio.c ****                 }
 298:..\..\FatFs/diskio.c **** 			}
 299:..\..\FatFs/diskio.c **** 		} else {	/* Not SDv2 card */
 300:..\..\FatFs/diskio.c **** 			if (send_cmd(ACMD41, 0) <= 1) 	{	/* SDv1 or MMC? */
 785              		.loc 1 300 0
 786 00da 0021     		movs	r1, #0
 787 00dc A920     		movs	r0, #169
 788 00de FFF7FEFF 		bl	send_cmd
 789              	.LVL108:
 790 00e2 0128     		cmp	r0, #1
 791 00e4 02D8     		bhi	.L84
ARM GAS  C:\Users\wa2n8\AppData\Local\Temp\ccuOGNYz.s 			page 21


 301:..\..\FatFs/diskio.c **** 				ty = CT_SD1; cmd = ACMD41;	/* SDv1 (ACMD41(0)) */
 792              		.loc 1 301 0
 793 00e6 0225     		movs	r5, #2
 794 00e8 A926     		movs	r6, #169
 795 00ea 01E0     		b	.L71
 796              	.L84:
 302:..\..\FatFs/diskio.c **** 			} else {
 303:..\..\FatFs/diskio.c **** 				ty = CT_MMC; cmd = CMD1;	/* MMCv3 (CMD1(0)) */
 797              		.loc 1 303 0
 798 00ec 0125     		movs	r5, #1
 799 00ee 2E46     		mov	r6, r5
 800              	.L71:
 801              	.LVL109:
 304:..\..\FatFs/diskio.c **** 			}
 305:..\..\FatFs/diskio.c ****             for(timer = 0;timer < 1000;timer++){ /* 1000 ms Time Out */
 802              		.loc 1 305 0
 803 00f0 0024     		movs	r4, #0
 804              	.LVL110:
 805 00f2 09E0     		b	.L72
 806              	.LVL111:
 807              	.L74:
 306:..\..\FatFs/diskio.c ****                 if(send_cmd(cmd,0) == 0){ /* Wait for end of initialization */
 808              		.loc 1 306 0
 809 00f4 0021     		movs	r1, #0
 810 00f6 3046     		mov	r0, r6
 811 00f8 FFF7FEFF 		bl	send_cmd
 812              	.LVL112:
 813 00fc 38B1     		cbz	r0, .L73
 307:..\..\FatFs/diskio.c ****                     break;
 308:..\..\FatFs/diskio.c ****                 }
 309:..\..\FatFs/diskio.c ****                 CyDelayUs(1000);
 814              		.loc 1 309 0 discriminator 2
 815 00fe 4FF47A70 		mov	r0, #1000
 816 0102 FFF7FEFF 		bl	CyDelayUs
 817              	.LVL113:
 305:..\..\FatFs/diskio.c ****                 if(send_cmd(cmd,0) == 0){ /* Wait for end of initialization */
 818              		.loc 1 305 0 discriminator 2
 819 0106 0134     		adds	r4, r4, #1
 820              	.LVL114:
 821              	.L72:
 305:..\..\FatFs/diskio.c ****                 if(send_cmd(cmd,0) == 0){ /* Wait for end of initialization */
 822              		.loc 1 305 0 is_stmt 0 discriminator 1
 823 0108 B4F57A7F 		cmp	r4, #1000
 824 010c F2D3     		bcc	.L74
 825              	.L73:
 310:..\..\FatFs/diskio.c ****             }
 311:..\..\FatFs/diskio.c **** 			if (!timer || send_cmd(CMD16, 512) != 0)	/* Set block length: 512 */
 826              		.loc 1 311 0 is_stmt 1
 827 010e 74B1     		cbz	r4, .L85
 828              		.loc 1 311 0 is_stmt 0 discriminator 1
 829 0110 4FF40071 		mov	r1, #512
 830 0114 1020     		movs	r0, #16
 831 0116 FFF7FEFF 		bl	send_cmd
 832              	.LVL115:
 833 011a 50B9     		cbnz	r0, .L86
 834 011c 0AE0     		b	.L62
 835              	.LVL116:
ARM GAS  C:\Users\wa2n8\AppData\Local\Temp\ccuOGNYz.s 			page 22


 836              	.L78:
 283:..\..\FatFs/diskio.c **** 	if (send_cmd(CMD0, 0) == 1) {			/* Put the card SPI/Idle state */
 837              		.loc 1 283 0 is_stmt 1
 838 011e 0025     		movs	r5, #0
 839 0120 08E0     		b	.L62
 840              	.LVL117:
 841              	.L80:
 842 0122 0025     		movs	r5, #0
 843              	.LVL118:
 844 0124 06E0     		b	.L62
 845              	.LVL119:
 846              	.L82:
 847 0126 0025     		movs	r5, #0
 848              	.LVL120:
 849 0128 04E0     		b	.L62
 850              	.LVL121:
 851              	.L83:
 296:..\..\FatFs/diskio.c ****                 }
 852              		.loc 1 296 0
 853 012a 0425     		movs	r5, #4
 854              	.LVL122:
 855 012c 02E0     		b	.L62
 856              	.LVL123:
 857              	.L85:
 312:..\..\FatFs/diskio.c **** 				ty = 0;
 858              		.loc 1 312 0
 859 012e 0025     		movs	r5, #0
 860              	.LVL124:
 861 0130 00E0     		b	.L62
 862              	.LVL125:
 863              	.L86:
 864 0132 0025     		movs	r5, #0
 865              	.LVL126:
 866              	.L62:
 313:..\..\FatFs/diskio.c **** 		}
 314:..\..\FatFs/diskio.c **** 	}
 315:..\..\FatFs/diskio.c **** 	CardType = ty;	/* Card type */
 867              		.loc 1 315 0
 868 0134 0D4B     		ldr	r3, .L90+4
 869 0136 1D70     		strb	r5, [r3]
 316:..\..\FatFs/diskio.c **** 	deselect();
 870              		.loc 1 316 0
 871 0138 FFF7FEFF 		bl	deselect
 872              	.LVL127:
 317:..\..\FatFs/diskio.c **** 
 318:..\..\FatFs/diskio.c **** 	if (ty) {			/* OK */
 873              		.loc 1 318 0
 874 013c 4DB1     		cbz	r5, .L75
 319:..\..\FatFs/diskio.c **** 		FCLK_FAST();			/* Set fast clock */
 875              		.loc 1 319 0
 876 013e 0121     		movs	r1, #1
 877 0140 0846     		mov	r0, r1
 878 0142 FFF7FEFF 		bl	SD_Clock_SetDividerRegister
 879              	.LVL128:
 320:..\..\FatFs/diskio.c **** 		Stat &= ~STA_NOINIT;	/* Clear STA_NOINIT flag */
 880              		.loc 1 320 0
 881 0146 084A     		ldr	r2, .L90
ARM GAS  C:\Users\wa2n8\AppData\Local\Temp\ccuOGNYz.s 			page 23


 882 0148 1378     		ldrb	r3, [r2]	@ zero_extendqisi2
 883 014a 03F0FE03 		and	r3, r3, #254
 884 014e 1370     		strb	r3, [r2]
 885 0150 02E0     		b	.L76
 886              	.L75:
 321:..\..\FatFs/diskio.c **** 	} else {			/* Failed */
 322:..\..\FatFs/diskio.c **** 		Stat = STA_NOINIT;
 887              		.loc 1 322 0
 888 0152 0122     		movs	r2, #1
 889 0154 044B     		ldr	r3, .L90
 890 0156 1A70     		strb	r2, [r3]
 891              	.L76:
 323:..\..\FatFs/diskio.c **** 	}
 324:..\..\FatFs/diskio.c **** 
 325:..\..\FatFs/diskio.c **** 	return Stat;
 892              		.loc 1 325 0
 893 0158 034B     		ldr	r3, .L90
 894 015a 1878     		ldrb	r0, [r3]	@ zero_extendqisi2
 895 015c C0B2     		uxtb	r0, r0
 896 015e 01E0     		b	.L58
 897              	.LVL129:
 898              	.L77:
 899              		.cfi_def_cfa_offset 0
 900              		.cfi_restore 4
 901              		.cfi_restore 5
 902              		.cfi_restore 6
 903              		.cfi_restore 14
 275:..\..\FatFs/diskio.c **** 	init_spi();							/* Initialize SPI */
 904              		.loc 1 275 0
 905 0160 0120     		movs	r0, #1
 906              	.LVL130:
 907 0162 7047     		bx	lr
 908              	.L58:
 909              		.cfi_def_cfa_offset 24
 910              		.cfi_offset 4, -16
 911              		.cfi_offset 5, -12
 912              		.cfi_offset 6, -8
 913              		.cfi_offset 14, -4
 326:..\..\FatFs/diskio.c **** }
 914              		.loc 1 326 0
 915 0164 02B0     		add	sp, sp, #8
 916              		.cfi_def_cfa_offset 16
 917              		@ sp needed
 918 0166 70BD     		pop	{r4, r5, r6, pc}
 919              	.L91:
 920              		.align	2
 921              	.L90:
 922 0168 00000000 		.word	.LANCHOR0
 923 016c 00000000 		.word	.LANCHOR1
 924              		.cfi_endproc
 925              	.LFE74:
 926              		.size	disk_initialize, .-disk_initialize
 927              		.section	.text.disk_read,"ax",%progbits
 928              		.align	2
 929              		.global	disk_read
 930              		.thumb
 931              		.thumb_func
ARM GAS  C:\Users\wa2n8\AppData\Local\Temp\ccuOGNYz.s 			page 24


 932              		.type	disk_read, %function
 933              	disk_read:
 934              	.LFB75:
 327:..\..\FatFs/diskio.c **** 
 328:..\..\FatFs/diskio.c **** 
 329:..\..\FatFs/diskio.c **** 
 330:..\..\FatFs/diskio.c **** /*-----------------------------------------------------------------------*/
 331:..\..\FatFs/diskio.c **** /* Read Sector(s)                                                        */
 332:..\..\FatFs/diskio.c **** /*-----------------------------------------------------------------------*/
 333:..\..\FatFs/diskio.c **** 
 334:..\..\FatFs/diskio.c **** DRESULT disk_read (
 335:..\..\FatFs/diskio.c **** 	BYTE drv,		/* Physical drive number (0) */
 336:..\..\FatFs/diskio.c **** 	BYTE *buff,		/* Pointer to the data buffer to store read data */
 337:..\..\FatFs/diskio.c **** 	DWORD sector,	/* Start sector number (LBA) */
 338:..\..\FatFs/diskio.c **** 	UINT count		/* Number of sectors to read (1..128) */
 339:..\..\FatFs/diskio.c **** )
 340:..\..\FatFs/diskio.c **** {
 935              		.loc 1 340 0
 936              		.cfi_startproc
 937              		@ args = 0, pretend = 0, frame = 0
 938              		@ frame_needed = 0, uses_anonymous_args = 0
 939              	.LVL131:
 341:..\..\FatFs/diskio.c **** 	if (drv || !count) return RES_PARERR;		/* Check parameter */
 940              		.loc 1 341 0
 941 0000 B8BB     		cbnz	r0, .L99
 340:..\..\FatFs/diskio.c **** 	if (drv || !count) return RES_PARERR;		/* Check parameter */
 942              		.loc 1 340 0 discriminator 2
 943 0002 38B5     		push	{r3, r4, r5, lr}
 944              		.cfi_def_cfa_offset 16
 945              		.cfi_offset 3, -16
 946              		.cfi_offset 4, -12
 947              		.cfi_offset 5, -8
 948              		.cfi_offset 14, -4
 949 0004 0D46     		mov	r5, r1
 950 0006 1C46     		mov	r4, r3
 951              		.loc 1 341 0 discriminator 2
 952 0008 ABB3     		cbz	r3, .L100
 342:..\..\FatFs/diskio.c **** 	if (Stat & STA_NOINIT) return RES_NOTRDY;	/* Check if drive is ready */
 953              		.loc 1 342 0
 954 000a 1D4B     		ldr	r3, .L104
 955              	.LVL132:
 956 000c 1B78     		ldrb	r3, [r3]	@ zero_extendqisi2
 957 000e 13F0010F 		tst	r3, #1
 958 0012 32D1     		bne	.L101
 343:..\..\FatFs/diskio.c **** 
 344:..\..\FatFs/diskio.c **** 	if (!(CardType & CT_BLOCK)) sector *= 512;	/* LBA ot BA conversion (byte addressing cards) */
 959              		.loc 1 344 0
 960 0014 1B4B     		ldr	r3, .L104+4
 961 0016 1B78     		ldrb	r3, [r3]	@ zero_extendqisi2
 962 0018 13F0080F 		tst	r3, #8
 963 001c 00D1     		bne	.L94
 964              		.loc 1 344 0 is_stmt 0 discriminator 1
 965 001e 5202     		lsls	r2, r2, #9
 966              	.LVL133:
 967              	.L94:
 345:..\..\FatFs/diskio.c **** 
 346:..\..\FatFs/diskio.c **** 	if (count == 1) {	/* Single sector read */
ARM GAS  C:\Users\wa2n8\AppData\Local\Temp\ccuOGNYz.s 			page 25


 968              		.loc 1 346 0 is_stmt 1
 969 0020 012C     		cmp	r4, #1
 970 0022 0BD1     		bne	.L95
 347:..\..\FatFs/diskio.c **** 		if ((send_cmd(CMD17, sector) == 0)	/* READ_SINGLE_BLOCK */
 971              		.loc 1 347 0
 972 0024 1146     		mov	r1, r2
 973              	.LVL134:
 974 0026 1120     		movs	r0, #17
 975              	.LVL135:
 976 0028 FFF7FEFF 		bl	send_cmd
 977              	.LVL136:
 978 002c D8B9     		cbnz	r0, .L96
 348:..\..\FatFs/diskio.c **** 			&& rcvr_datablock(buff, 512))
 979              		.loc 1 348 0
 980 002e 4FF40071 		mov	r1, #512
 981 0032 2846     		mov	r0, r5
 982 0034 FFF7FEFF 		bl	rcvr_datablock
 983              	.LVL137:
 984 0038 A0B9     		cbnz	r0, .L102
 985 003a 14E0     		b	.L96
 986              	.LVL138:
 987              	.L95:
 349:..\..\FatFs/diskio.c **** 			count = 0;
 350:..\..\FatFs/diskio.c **** 	}
 351:..\..\FatFs/diskio.c **** 	else {				/* Multiple sector read */
 352:..\..\FatFs/diskio.c **** 		if (send_cmd(CMD18, sector) == 0) {	/* READ_MULTIPLE_BLOCK */
 988              		.loc 1 352 0
 989 003c 1146     		mov	r1, r2
 990              	.LVL139:
 991 003e 1220     		movs	r0, #18
 992              	.LVL140:
 993 0040 FFF7FEFF 		bl	send_cmd
 994              	.LVL141:
 995 0044 78B9     		cbnz	r0, .L96
 996              	.L98:
 353:..\..\FatFs/diskio.c **** 			do {
 354:..\..\FatFs/diskio.c **** 				if (!rcvr_datablock(buff, 512)) break;
 997              		.loc 1 354 0
 998 0046 4FF40071 		mov	r1, #512
 999 004a 2846     		mov	r0, r5
 1000 004c FFF7FEFF 		bl	rcvr_datablock
 1001              	.LVL142:
 1002 0050 18B1     		cbz	r0, .L97
 355:..\..\FatFs/diskio.c **** 				buff += 512;
 1003              		.loc 1 355 0
 1004 0052 05F50075 		add	r5, r5, #512
 1005              	.LVL143:
 356:..\..\FatFs/diskio.c **** 			} while (--count);
 1006              		.loc 1 356 0
 1007 0056 013C     		subs	r4, r4, #1
 1008              	.LVL144:
 1009 0058 F5D1     		bne	.L98
 1010              	.L97:
 357:..\..\FatFs/diskio.c **** 			send_cmd(CMD12, 0);				/* STOP_TRANSMISSION */
 1011              		.loc 1 357 0
 1012 005a 0021     		movs	r1, #0
 1013 005c 0C20     		movs	r0, #12
ARM GAS  C:\Users\wa2n8\AppData\Local\Temp\ccuOGNYz.s 			page 26


 1014 005e FFF7FEFF 		bl	send_cmd
 1015              	.LVL145:
 1016 0062 00E0     		b	.L96
 1017              	.L102:
 349:..\..\FatFs/diskio.c **** 	}
 1018              		.loc 1 349 0
 1019 0064 0024     		movs	r4, #0
 1020              	.LVL146:
 1021              	.L96:
 358:..\..\FatFs/diskio.c **** 		}
 359:..\..\FatFs/diskio.c **** 	}
 360:..\..\FatFs/diskio.c **** 	deselect();
 1022              		.loc 1 360 0
 1023 0066 FFF7FEFF 		bl	deselect
 1024              	.LVL147:
 361:..\..\FatFs/diskio.c **** 
 362:..\..\FatFs/diskio.c **** 	return count ? RES_ERROR : RES_OK;	/* Return result */
 1025              		.loc 1 362 0
 1026 006a 201C     		adds	r0, r4, #0
 1027 006c 18BF     		it	ne
 1028 006e 0120     		movne	r0, #1
 1029 0070 38BD     		pop	{r3, r4, r5, pc}
 1030              	.LVL148:
 1031              	.L99:
 1032              		.cfi_def_cfa_offset 0
 1033              		.cfi_restore 3
 1034              		.cfi_restore 4
 1035              		.cfi_restore 5
 1036              		.cfi_restore 14
 341:..\..\FatFs/diskio.c **** 	if (Stat & STA_NOINIT) return RES_NOTRDY;	/* Check if drive is ready */
 1037              		.loc 1 341 0
 1038 0072 0420     		movs	r0, #4
 1039              	.LVL149:
 363:..\..\FatFs/diskio.c **** }
 1040              		.loc 1 363 0
 1041 0074 7047     		bx	lr
 1042              	.LVL150:
 1043              	.L100:
 1044              		.cfi_def_cfa_offset 16
 1045              		.cfi_offset 3, -16
 1046              		.cfi_offset 4, -12
 1047              		.cfi_offset 5, -8
 1048              		.cfi_offset 14, -4
 341:..\..\FatFs/diskio.c **** 	if (Stat & STA_NOINIT) return RES_NOTRDY;	/* Check if drive is ready */
 1049              		.loc 1 341 0
 1050 0076 0420     		movs	r0, #4
 1051              	.LVL151:
 1052 0078 38BD     		pop	{r3, r4, r5, pc}
 1053              	.LVL152:
 1054              	.L101:
 342:..\..\FatFs/diskio.c **** 
 1055              		.loc 1 342 0
 1056 007a 0320     		movs	r0, #3
 1057              	.LVL153:
 1058              		.loc 1 363 0
 1059 007c 38BD     		pop	{r3, r4, r5, pc}
 1060              	.LVL154:
ARM GAS  C:\Users\wa2n8\AppData\Local\Temp\ccuOGNYz.s 			page 27


 1061              	.L105:
 1062 007e 00BF     		.align	2
 1063              	.L104:
 1064 0080 00000000 		.word	.LANCHOR0
 1065 0084 00000000 		.word	.LANCHOR1
 1066              		.cfi_endproc
 1067              	.LFE75:
 1068              		.size	disk_read, .-disk_read
 1069              		.section	.text.disk_write,"ax",%progbits
 1070              		.align	2
 1071              		.global	disk_write
 1072              		.thumb
 1073              		.thumb_func
 1074              		.type	disk_write, %function
 1075              	disk_write:
 1076              	.LFB76:
 364:..\..\FatFs/diskio.c **** 
 365:..\..\FatFs/diskio.c **** 
 366:..\..\FatFs/diskio.c **** 
 367:..\..\FatFs/diskio.c **** /*-----------------------------------------------------------------------*/
 368:..\..\FatFs/diskio.c **** /* Write Sector(s)                                                       */
 369:..\..\FatFs/diskio.c **** /*-----------------------------------------------------------------------*/
 370:..\..\FatFs/diskio.c **** 
 371:..\..\FatFs/diskio.c **** #if FF_FS_READONLY == 0
 372:..\..\FatFs/diskio.c **** 
 373:..\..\FatFs/diskio.c **** DRESULT disk_write (
 374:..\..\FatFs/diskio.c **** 	BYTE drv,			/* Physical drive number (0) */
 375:..\..\FatFs/diskio.c **** 	const BYTE *buff,	/* Ponter to the data to write */
 376:..\..\FatFs/diskio.c **** 	DWORD sector,		/* Start sector number (LBA) */
 377:..\..\FatFs/diskio.c **** 	UINT count			/* Number of sectors to write (1..128) */
 378:..\..\FatFs/diskio.c **** )
 379:..\..\FatFs/diskio.c **** {
 1077              		.loc 1 379 0
 1078              		.cfi_startproc
 1079              		@ args = 0, pretend = 0, frame = 0
 1080              		@ frame_needed = 0, uses_anonymous_args = 0
 1081              	.LVL155:
 380:..\..\FatFs/diskio.c **** 	if (drv || !count) return RES_PARERR;		/* Check parameter */
 1082              		.loc 1 380 0
 1083 0000 0028     		cmp	r0, #0
 1084 0002 46D1     		bne	.L114
 379:..\..\FatFs/diskio.c **** 	if (drv || !count) return RES_PARERR;		/* Check parameter */
 1085              		.loc 1 379 0 discriminator 2
 1086 0004 70B5     		push	{r4, r5, r6, lr}
 1087              		.cfi_def_cfa_offset 16
 1088              		.cfi_offset 4, -16
 1089              		.cfi_offset 5, -12
 1090              		.cfi_offset 6, -8
 1091              		.cfi_offset 14, -4
 1092 0006 0D46     		mov	r5, r1
 1093 0008 1646     		mov	r6, r2
 1094 000a 1C46     		mov	r4, r3
 1095              		.loc 1 380 0 discriminator 2
 1096 000c 002B     		cmp	r3, #0
 1097 000e 42D0     		beq	.L115
 381:..\..\FatFs/diskio.c **** 	if (Stat & STA_NOINIT) return RES_NOTRDY;	/* Check drive status */
 1098              		.loc 1 381 0
ARM GAS  C:\Users\wa2n8\AppData\Local\Temp\ccuOGNYz.s 			page 28


 1099 0010 244B     		ldr	r3, .L121
 1100              	.LVL156:
 1101 0012 1B78     		ldrb	r3, [r3]	@ zero_extendqisi2
 1102 0014 13F0010F 		tst	r3, #1
 1103 0018 3FD1     		bne	.L116
 382:..\..\FatFs/diskio.c **** 	if (Stat & STA_PROTECT) return RES_WRPRT;	/* Check write protect */
 1104              		.loc 1 382 0
 1105 001a 224B     		ldr	r3, .L121
 1106 001c 1B78     		ldrb	r3, [r3]	@ zero_extendqisi2
 1107 001e 13F0040F 		tst	r3, #4
 1108 0022 3CD1     		bne	.L117
 383:..\..\FatFs/diskio.c **** 
 384:..\..\FatFs/diskio.c **** 	if (!(CardType & CT_BLOCK)) sector *= 512;	/* LBA ==> BA conversion (byte addressing cards) */
 1109              		.loc 1 384 0
 1110 0024 204B     		ldr	r3, .L121+4
 1111 0026 1B78     		ldrb	r3, [r3]	@ zero_extendqisi2
 1112 0028 13F0080F 		tst	r3, #8
 1113 002c 00D1     		bne	.L108
 1114              		.loc 1 384 0 is_stmt 0 discriminator 1
 1115 002e 5602     		lsls	r6, r2, #9
 1116              	.LVL157:
 1117              	.L108:
 385:..\..\FatFs/diskio.c **** 
 386:..\..\FatFs/diskio.c **** 	if (count == 1) {	/* Single sector write */
 1118              		.loc 1 386 0 is_stmt 1
 1119 0030 012C     		cmp	r4, #1
 1120 0032 0AD1     		bne	.L109
 387:..\..\FatFs/diskio.c **** 		if ((send_cmd(CMD24, sector) == 0)	/* WRITE_BLOCK */
 1121              		.loc 1 387 0
 1122 0034 3146     		mov	r1, r6
 1123              	.LVL158:
 1124 0036 1820     		movs	r0, #24
 1125              	.LVL159:
 1126 0038 FFF7FEFF 		bl	send_cmd
 1127              	.LVL160:
 1128 003c 18BB     		cbnz	r0, .L110
 388:..\..\FatFs/diskio.c **** 			&& xmit_datablock(buff, 0xFE))
 1129              		.loc 1 388 0
 1130 003e FE21     		movs	r1, #254
 1131 0040 2846     		mov	r0, r5
 1132 0042 FFF7FEFF 		bl	xmit_datablock
 1133              	.LVL161:
 1134 0046 D8B9     		cbnz	r0, .L118
 1135 0048 1DE0     		b	.L110
 1136              	.LVL162:
 1137              	.L109:
 389:..\..\FatFs/diskio.c **** 			count = 0;
 390:..\..\FatFs/diskio.c **** 	}
 391:..\..\FatFs/diskio.c **** 	else {				/* Multiple sector write */
 392:..\..\FatFs/diskio.c **** 		if (CardType & CT_SDC) send_cmd(ACMD23, count);	/* Predefine number of sectors */
 1138              		.loc 1 392 0
 1139 004a 13F0060F 		tst	r3, #6
 1140 004e 03D0     		beq	.L111
 1141              		.loc 1 392 0 is_stmt 0 discriminator 1
 1142 0050 2146     		mov	r1, r4
 1143              	.LVL163:
 1144 0052 9720     		movs	r0, #151
ARM GAS  C:\Users\wa2n8\AppData\Local\Temp\ccuOGNYz.s 			page 29


 1145              	.LVL164:
 1146 0054 FFF7FEFF 		bl	send_cmd
 1147              	.LVL165:
 1148              	.L111:
 393:..\..\FatFs/diskio.c **** 		if (send_cmd(CMD25, sector) == 0) {	/* WRITE_MULTIPLE_BLOCK */
 1149              		.loc 1 393 0 is_stmt 1
 1150 0058 3146     		mov	r1, r6
 1151 005a 1920     		movs	r0, #25
 1152 005c FFF7FEFF 		bl	send_cmd
 1153              	.LVL166:
 1154 0060 88B9     		cbnz	r0, .L110
 1155              	.L113:
 394:..\..\FatFs/diskio.c **** 			do {
 395:..\..\FatFs/diskio.c **** 				if (!xmit_datablock(buff, 0xFC)) break;
 1156              		.loc 1 395 0
 1157 0062 FC21     		movs	r1, #252
 1158 0064 2846     		mov	r0, r5
 1159 0066 FFF7FEFF 		bl	xmit_datablock
 1160              	.LVL167:
 1161 006a 18B1     		cbz	r0, .L112
 396:..\..\FatFs/diskio.c **** 				buff += 512;
 1162              		.loc 1 396 0
 1163 006c 05F50075 		add	r5, r5, #512
 1164              	.LVL168:
 397:..\..\FatFs/diskio.c **** 			} while (--count);
 1165              		.loc 1 397 0
 1166 0070 013C     		subs	r4, r4, #1
 1167              	.LVL169:
 1168 0072 F6D1     		bne	.L113
 1169              	.L112:
 398:..\..\FatFs/diskio.c **** 			if (!xmit_datablock(0, 0xFD))	/* STOP_TRAN token */
 1170              		.loc 1 398 0
 1171 0074 FD21     		movs	r1, #253
 1172 0076 0020     		movs	r0, #0
 1173 0078 FFF7FEFF 		bl	xmit_datablock
 1174              	.LVL170:
 1175 007c 10B1     		cbz	r0, .L119
 1176 007e 02E0     		b	.L110
 1177              	.L118:
 389:..\..\FatFs/diskio.c **** 	}
 1178              		.loc 1 389 0
 1179 0080 0024     		movs	r4, #0
 1180              	.LVL171:
 1181 0082 00E0     		b	.L110
 1182              	.LVL172:
 1183              	.L119:
 399:..\..\FatFs/diskio.c **** 				count = 1;
 1184              		.loc 1 399 0
 1185 0084 0124     		movs	r4, #1
 1186              	.LVL173:
 1187              	.L110:
 400:..\..\FatFs/diskio.c **** 		}
 401:..\..\FatFs/diskio.c **** 	}
 402:..\..\FatFs/diskio.c **** 	deselect();
 1188              		.loc 1 402 0
 1189 0086 FFF7FEFF 		bl	deselect
 1190              	.LVL174:
ARM GAS  C:\Users\wa2n8\AppData\Local\Temp\ccuOGNYz.s 			page 30


 403:..\..\FatFs/diskio.c **** 
 404:..\..\FatFs/diskio.c **** 	return count ? RES_ERROR : RES_OK;	/* Return result */
 1191              		.loc 1 404 0
 1192 008a 201C     		adds	r0, r4, #0
 1193 008c 18BF     		it	ne
 1194 008e 0120     		movne	r0, #1
 1195 0090 70BD     		pop	{r4, r5, r6, pc}
 1196              	.LVL175:
 1197              	.L114:
 1198              		.cfi_def_cfa_offset 0
 1199              		.cfi_restore 4
 1200              		.cfi_restore 5
 1201              		.cfi_restore 6
 1202              		.cfi_restore 14
 380:..\..\FatFs/diskio.c **** 	if (Stat & STA_NOINIT) return RES_NOTRDY;	/* Check drive status */
 1203              		.loc 1 380 0
 1204 0092 0420     		movs	r0, #4
 1205              	.LVL176:
 405:..\..\FatFs/diskio.c **** }
 1206              		.loc 1 405 0
 1207 0094 7047     		bx	lr
 1208              	.LVL177:
 1209              	.L115:
 1210              		.cfi_def_cfa_offset 16
 1211              		.cfi_offset 4, -16
 1212              		.cfi_offset 5, -12
 1213              		.cfi_offset 6, -8
 1214              		.cfi_offset 14, -4
 380:..\..\FatFs/diskio.c **** 	if (Stat & STA_NOINIT) return RES_NOTRDY;	/* Check drive status */
 1215              		.loc 1 380 0
 1216 0096 0420     		movs	r0, #4
 1217              	.LVL178:
 1218 0098 70BD     		pop	{r4, r5, r6, pc}
 1219              	.LVL179:
 1220              	.L116:
 381:..\..\FatFs/diskio.c **** 	if (Stat & STA_PROTECT) return RES_WRPRT;	/* Check write protect */
 1221              		.loc 1 381 0
 1222 009a 0320     		movs	r0, #3
 1223              	.LVL180:
 1224 009c 70BD     		pop	{r4, r5, r6, pc}
 1225              	.LVL181:
 1226              	.L117:
 382:..\..\FatFs/diskio.c **** 
 1227              		.loc 1 382 0
 1228 009e 0220     		movs	r0, #2
 1229              	.LVL182:
 1230              		.loc 1 405 0
 1231 00a0 70BD     		pop	{r4, r5, r6, pc}
 1232              	.LVL183:
 1233              	.L122:
 1234 00a2 00BF     		.align	2
 1235              	.L121:
 1236 00a4 00000000 		.word	.LANCHOR0
 1237 00a8 00000000 		.word	.LANCHOR1
 1238              		.cfi_endproc
 1239              	.LFE76:
 1240              		.size	disk_write, .-disk_write
ARM GAS  C:\Users\wa2n8\AppData\Local\Temp\ccuOGNYz.s 			page 31


 1241              		.section	.text.disk_ioctl,"ax",%progbits
 1242              		.align	2
 1243              		.global	disk_ioctl
 1244              		.thumb
 1245              		.thumb_func
 1246              		.type	disk_ioctl, %function
 1247              	disk_ioctl:
 1248              	.LFB77:
 406:..\..\FatFs/diskio.c **** 
 407:..\..\FatFs/diskio.c **** #endif
 408:..\..\FatFs/diskio.c **** 
 409:..\..\FatFs/diskio.c **** 
 410:..\..\FatFs/diskio.c **** /*-----------------------------------------------------------------------*/
 411:..\..\FatFs/diskio.c **** /* Miscellaneous Functions                                               */
 412:..\..\FatFs/diskio.c **** /*-----------------------------------------------------------------------*/
 413:..\..\FatFs/diskio.c **** 
 414:..\..\FatFs/diskio.c **** DRESULT disk_ioctl (
 415:..\..\FatFs/diskio.c **** 	BYTE drv,		/* Physical drive number (0) */
 416:..\..\FatFs/diskio.c **** 	BYTE cmd,		/* Control command code */
 417:..\..\FatFs/diskio.c **** 	void *buff		/* Pointer to the conrtol data */
 418:..\..\FatFs/diskio.c **** )
 419:..\..\FatFs/diskio.c **** {
 1249              		.loc 1 419 0
 1250              		.cfi_startproc
 1251              		@ args = 0, pretend = 0, frame = 16
 1252              		@ frame_needed = 0, uses_anonymous_args = 0
 1253              	.LVL184:
 420:..\..\FatFs/diskio.c **** 	DRESULT res;
 421:..\..\FatFs/diskio.c **** 	BYTE n, csd[16];
 422:..\..\FatFs/diskio.c **** 	DWORD *dp, st, ed, csize;
 423:..\..\FatFs/diskio.c **** 
 424:..\..\FatFs/diskio.c **** 
 425:..\..\FatFs/diskio.c **** 	if (drv) return RES_PARERR;					/* Check parameter */
 1254              		.loc 1 425 0
 1255 0000 0028     		cmp	r0, #0
 1256 0002 40F00D81 		bne	.L138
 1257 0006 0346     		mov	r3, r0
 426:..\..\FatFs/diskio.c **** 	if (Stat & STA_NOINIT) return RES_NOTRDY;	/* Check if drive is ready */
 1258              		.loc 1 426 0
 1259 0008 8848     		ldr	r0, .L157
 1260              	.LVL185:
 1261 000a 0078     		ldrb	r0, [r0]	@ zero_extendqisi2
 1262 000c 10F0010F 		tst	r0, #1
 1263 0010 40F00881 		bne	.L139
 419:..\..\FatFs/diskio.c **** 	DRESULT res;
 1264              		.loc 1 419 0
 1265 0014 30B5     		push	{r4, r5, lr}
 1266              		.cfi_def_cfa_offset 12
 1267              		.cfi_offset 4, -12
 1268              		.cfi_offset 5, -8
 1269              		.cfi_offset 14, -4
 1270 0016 85B0     		sub	sp, sp, #20
 1271              		.cfi_def_cfa_offset 32
 1272 0018 1846     		mov	r0, r3
 1273 001a 1446     		mov	r4, r2
 1274              	.LVL186:
 427:..\..\FatFs/diskio.c **** 
ARM GAS  C:\Users\wa2n8\AppData\Local\Temp\ccuOGNYz.s 			page 32


 428:..\..\FatFs/diskio.c **** 	res = RES_ERROR;
 429:..\..\FatFs/diskio.c **** 
 430:..\..\FatFs/diskio.c **** 	switch (cmd) {
 1275              		.loc 1 430 0
 1276 001c 0429     		cmp	r1, #4
 1277 001e 00F2E080 		bhi	.L140
 1278 0022 DFE801F0 		tbb	[pc, r1]
 1279              	.L127:
 1280 0026 03       		.byte	(.L126-.L127)/2
 1281 0027 0A       		.byte	(.L128-.L127)/2
 1282 0028 DE       		.byte	(.L140-.L127)/2
 1283 0029 52       		.byte	(.L129-.L127)/2
 1284 002a AD       		.byte	(.L130-.L127)/2
 1285 002b 00       		.p2align 1
 1286              	.L126:
 431:..\..\FatFs/diskio.c **** 	case CTRL_SYNC :		/* Wait for end of internal write process of the drive */
 432:..\..\FatFs/diskio.c **** 		if (select()) res = RES_OK;
 1287              		.loc 1 432 0
 1288 002c FFF7FEFF 		bl	select
 1289              	.LVL187:
 1290 0030 0028     		cmp	r0, #0
 1291 0032 40F0D880 		bne	.L141
 428:..\..\FatFs/diskio.c **** 
 1292              		.loc 1 428 0
 1293 0036 0124     		movs	r4, #1
 1294              	.LVL188:
 1295 0038 EEE0     		b	.L125
 1296              	.LVL189:
 1297              	.L128:
 433:..\..\FatFs/diskio.c **** 		break;
 434:..\..\FatFs/diskio.c **** 
 435:..\..\FatFs/diskio.c **** 	case GET_SECTOR_COUNT :	/* Get drive capacity in unit of sector (DWORD) */
 436:..\..\FatFs/diskio.c **** 		if ((send_cmd(CMD9, 0) == 0) && rcvr_datablock(csd, 16)) {
 1298              		.loc 1 436 0
 1299 003a 0021     		movs	r1, #0
 1300              	.LVL190:
 1301 003c 0920     		movs	r0, #9
 1302 003e FFF7FEFF 		bl	send_cmd
 1303              	.LVL191:
 1304 0042 0028     		cmp	r0, #0
 1305 0044 40F0D180 		bne	.L142
 1306              		.loc 1 436 0 is_stmt 0 discriminator 1
 1307 0048 1021     		movs	r1, #16
 1308 004a 6846     		mov	r0, sp
 1309 004c FFF7FEFF 		bl	rcvr_datablock
 1310              	.LVL192:
 1311 0050 0028     		cmp	r0, #0
 1312 0052 00F0CC80 		beq	.L143
 437:..\..\FatFs/diskio.c **** 			if ((csd[0] >> 6) == 1) {	/* SDC ver 2.00 */
 1313              		.loc 1 437 0 is_stmt 1
 1314 0056 9DF80030 		ldrb	r3, [sp]	@ zero_extendqisi2
 1315 005a 9B09     		lsrs	r3, r3, #6
 1316 005c 012B     		cmp	r3, #1
 1317 005e 10D1     		bne	.L131
 438:..\..\FatFs/diskio.c **** 				csize = csd[9] + ((WORD)csd[8] << 8) + ((DWORD)(csd[7] & 63) << 16) + 1;
 1318              		.loc 1 438 0
 1319 0060 9DF80930 		ldrb	r3, [sp, #9]	@ zero_extendqisi2
ARM GAS  C:\Users\wa2n8\AppData\Local\Temp\ccuOGNYz.s 			page 33


 1320 0064 9DF80820 		ldrb	r2, [sp, #8]	@ zero_extendqisi2
 1321 0068 03EB0222 		add	r2, r3, r2, lsl #8
 1322 006c 9DF80730 		ldrb	r3, [sp, #7]	@ zero_extendqisi2
 1323 0070 1B04     		lsls	r3, r3, #16
 1324 0072 03F47C13 		and	r3, r3, #4128768
 1325 0076 1344     		add	r3, r3, r2
 1326 0078 0133     		adds	r3, r3, #1
 1327              	.LVL193:
 439:..\..\FatFs/diskio.c **** 				*(DWORD*)buff = csize << 10;
 1328              		.loc 1 439 0
 1329 007a 9B02     		lsls	r3, r3, #10
 1330              	.LVL194:
 1331 007c 2360     		str	r3, [r4]
 1332              	.LVL195:
 440:..\..\FatFs/diskio.c **** 			} else {					/* SDC ver 1.XX or MMC ver 3 */
 441:..\..\FatFs/diskio.c **** 				n = (csd[5] & 15) + ((csd[10] & 128) >> 7) + ((csd[9] & 3) << 1) + 2;
 442:..\..\FatFs/diskio.c **** 				csize = (csd[8] >> 6) + ((WORD)csd[7] << 2) + ((WORD)(csd[6] & 3) << 10) + 1;
 443:..\..\FatFs/diskio.c **** 				*(DWORD*)buff = csize << (n - 9);
 444:..\..\FatFs/diskio.c **** 			}
 445:..\..\FatFs/diskio.c **** 			res = RES_OK;
 1333              		.loc 1 445 0
 1334 007e 0024     		movs	r4, #0
 1335              	.LVL196:
 1336 0080 CAE0     		b	.L125
 1337              	.LVL197:
 1338              	.L131:
 441:..\..\FatFs/diskio.c **** 				csize = (csd[8] >> 6) + ((WORD)csd[7] << 2) + ((WORD)(csd[6] & 3) << 10) + 1;
 1339              		.loc 1 441 0
 1340 0082 9DF80520 		ldrb	r2, [sp, #5]	@ zero_extendqisi2
 1341 0086 9DF80A10 		ldrb	r1, [sp, #10]	@ zero_extendqisi2
 1342 008a 9DF80930 		ldrb	r3, [sp, #9]	@ zero_extendqisi2
 1343 008e 5B00     		lsls	r3, r3, #1
 1344 0090 02F00F02 		and	r2, r2, #15
 1345 0094 02EBD112 		add	r2, r2, r1, lsr #7
 1346 0098 03F00603 		and	r3, r3, #6
 1347 009c 1344     		add	r3, r3, r2
 1348 009e 0233     		adds	r3, r3, #2
 1349 00a0 DBB2     		uxtb	r3, r3
 1350              	.LVL198:
 442:..\..\FatFs/diskio.c **** 				*(DWORD*)buff = csize << (n - 9);
 1351              		.loc 1 442 0
 1352 00a2 9DF80810 		ldrb	r1, [sp, #8]	@ zero_extendqisi2
 1353 00a6 9DF80720 		ldrb	r2, [sp, #7]	@ zero_extendqisi2
 1354 00aa 9200     		lsls	r2, r2, #2
 1355 00ac 02EB9111 		add	r1, r2, r1, lsr #6
 1356 00b0 9DF80620 		ldrb	r2, [sp, #6]	@ zero_extendqisi2
 1357 00b4 9202     		lsls	r2, r2, #10
 1358 00b6 02F44062 		and	r2, r2, #3072
 1359 00ba 0A44     		add	r2, r2, r1
 1360 00bc 0132     		adds	r2, r2, #1
 1361              	.LVL199:
 443:..\..\FatFs/diskio.c **** 			}
 1362              		.loc 1 443 0
 1363 00be 093B     		subs	r3, r3, #9
 1364              	.LVL200:
 1365 00c0 02FA03F3 		lsl	r3, r2, r3
 1366              	.LVL201:
ARM GAS  C:\Users\wa2n8\AppData\Local\Temp\ccuOGNYz.s 			page 34


 1367 00c4 2360     		str	r3, [r4]
 1368              	.LVL202:
 1369              		.loc 1 445 0
 1370 00c6 0024     		movs	r4, #0
 1371              	.LVL203:
 1372 00c8 A6E0     		b	.L125
 1373              	.LVL204:
 1374              	.L129:
 446:..\..\FatFs/diskio.c **** 		}
 447:..\..\FatFs/diskio.c **** 		break;
 448:..\..\FatFs/diskio.c **** 
 449:..\..\FatFs/diskio.c **** 	case GET_BLOCK_SIZE :	/* Get erase block size in unit of sector (DWORD) */
 450:..\..\FatFs/diskio.c **** 		if (CardType & CT_SD2) {	/* SDC ver 2.00 */
 1375              		.loc 1 450 0
 1376 00ca 594B     		ldr	r3, .L157+4
 1377 00cc 1B78     		ldrb	r3, [r3]	@ zero_extendqisi2
 1378 00ce 13F0040F 		tst	r3, #4
 1379 00d2 21D0     		beq	.L132
 451:..\..\FatFs/diskio.c **** 			if (send_cmd(ACMD13, 0) == 0) {	/* Read SD status */
 1380              		.loc 1 451 0
 1381 00d4 0021     		movs	r1, #0
 1382              	.LVL205:
 1383 00d6 8D20     		movs	r0, #141
 1384 00d8 FFF7FEFF 		bl	send_cmd
 1385              	.LVL206:
 1386 00dc 0028     		cmp	r0, #0
 1387 00de 40F08880 		bne	.L144
 452:..\..\FatFs/diskio.c **** 				xchg_spi(0xFF);
 1388              		.loc 1 452 0
 1389 00e2 FF20     		movs	r0, #255
 1390 00e4 FFF7FEFF 		bl	xchg_spi
 1391              	.LVL207:
 453:..\..\FatFs/diskio.c **** 				if (rcvr_datablock(csd, 16)) {				/* Read partial block */
 1392              		.loc 1 453 0
 1393 00e8 1021     		movs	r1, #16
 1394 00ea 6846     		mov	r0, sp
 1395 00ec FFF7FEFF 		bl	rcvr_datablock
 1396              	.LVL208:
 1397 00f0 38B9     		cbnz	r0, .L145
 428:..\..\FatFs/diskio.c **** 
 1398              		.loc 1 428 0
 1399 00f2 0124     		movs	r4, #1
 1400              	.LVL209:
 1401 00f4 90E0     		b	.L125
 1402              	.LVL210:
 1403              	.L134:
 454:..\..\FatFs/diskio.c **** 					for (n = 64 - 16; n; n--) xchg_spi(0xFF);	/* Purge trailing data */
 1404              		.loc 1 454 0 discriminator 3
 1405 00f6 FF20     		movs	r0, #255
 1406 00f8 FFF7FEFF 		bl	xchg_spi
 1407              	.LVL211:
 1408 00fc 013D     		subs	r5, r5, #1
 1409              	.LVL212:
 1410 00fe EDB2     		uxtb	r5, r5
 1411              	.LVL213:
 1412 0100 00E0     		b	.L133
 1413              	.LVL214:
ARM GAS  C:\Users\wa2n8\AppData\Local\Temp\ccuOGNYz.s 			page 35


 1414              	.L145:
 1415 0102 3025     		movs	r5, #48
 1416              	.L133:
 1417              	.LVL215:
 1418              		.loc 1 454 0 is_stmt 0 discriminator 1
 1419 0104 002D     		cmp	r5, #0
 1420 0106 F6D1     		bne	.L134
 455:..\..\FatFs/diskio.c **** 					*(DWORD*)buff = 16UL << (csd[10] >> 4);
 1421              		.loc 1 455 0 is_stmt 1
 1422 0108 9DF80A30 		ldrb	r3, [sp, #10]	@ zero_extendqisi2
 1423 010c 1A09     		lsrs	r2, r3, #4
 1424 010e 1023     		movs	r3, #16
 1425 0110 9340     		lsls	r3, r3, r2
 1426 0112 2360     		str	r3, [r4]
 1427              	.LVL216:
 456:..\..\FatFs/diskio.c **** 					res = RES_OK;
 1428              		.loc 1 456 0
 1429 0114 0024     		movs	r4, #0
 1430              	.LVL217:
 1431 0116 7FE0     		b	.L125
 1432              	.LVL218:
 1433              	.L132:
 457:..\..\FatFs/diskio.c **** 				}
 458:..\..\FatFs/diskio.c **** 			}
 459:..\..\FatFs/diskio.c **** 		} else {					/* SDC ver 1.XX or MMC */
 460:..\..\FatFs/diskio.c **** 			if ((send_cmd(CMD9, 0) == 0) && rcvr_datablock(csd, 16)) {	/* Read CSD */
 1434              		.loc 1 460 0
 1435 0118 0021     		movs	r1, #0
 1436              	.LVL219:
 1437 011a 0920     		movs	r0, #9
 1438 011c FFF7FEFF 		bl	send_cmd
 1439              	.LVL220:
 1440 0120 0028     		cmp	r0, #0
 1441 0122 68D1     		bne	.L146
 1442              		.loc 1 460 0 is_stmt 0 discriminator 1
 1443 0124 1021     		movs	r1, #16
 1444 0126 6846     		mov	r0, sp
 1445 0128 FFF7FEFF 		bl	rcvr_datablock
 1446              	.LVL221:
 1447 012c 0028     		cmp	r0, #0
 1448 012e 64D0     		beq	.L147
 461:..\..\FatFs/diskio.c **** 				if (CardType & CT_SD1) {	/* SDC ver 1.XX */
 1449              		.loc 1 461 0 is_stmt 1
 1450 0130 3F4B     		ldr	r3, .L157+4
 1451 0132 1B78     		ldrb	r3, [r3]	@ zero_extendqisi2
 1452 0134 13F0020F 		tst	r3, #2
 1453 0138 11D0     		beq	.L135
 462:..\..\FatFs/diskio.c **** 					*(DWORD*)buff = (((csd[10] & 63) << 1) + ((WORD)(csd[11] & 128) >> 7) + 1) << ((csd[13] >> 6) 
 1454              		.loc 1 462 0
 1455 013a 9DF80A30 		ldrb	r3, [sp, #10]	@ zero_extendqisi2
 1456 013e 5B00     		lsls	r3, r3, #1
 1457 0140 03F07E03 		and	r3, r3, #126
 1458 0144 9DF80B20 		ldrb	r2, [sp, #11]	@ zero_extendqisi2
 1459 0148 03EBD213 		add	r3, r3, r2, lsr #7
 1460 014c 0133     		adds	r3, r3, #1
 1461 014e 9DF80D20 		ldrb	r2, [sp, #13]	@ zero_extendqisi2
 1462 0152 9209     		lsrs	r2, r2, #6
ARM GAS  C:\Users\wa2n8\AppData\Local\Temp\ccuOGNYz.s 			page 36


 1463 0154 013A     		subs	r2, r2, #1
 1464 0156 9340     		lsls	r3, r3, r2
 1465 0158 2360     		str	r3, [r4]
 463:..\..\FatFs/diskio.c **** 				} else {					/* MMC */
 464:..\..\FatFs/diskio.c **** 					*(DWORD*)buff = ((WORD)((csd[10] & 124) >> 2) + 1) * (((csd[11] & 3) << 3) + ((csd[11] & 224) 
 465:..\..\FatFs/diskio.c **** 				}
 466:..\..\FatFs/diskio.c **** 				res = RES_OK;
 1466              		.loc 1 466 0
 1467 015a 0024     		movs	r4, #0
 1468              	.LVL222:
 1469 015c 5CE0     		b	.L125
 1470              	.LVL223:
 1471              	.L135:
 464:..\..\FatFs/diskio.c **** 				}
 1472              		.loc 1 464 0
 1473 015e 9DF80A30 		ldrb	r3, [sp, #10]	@ zero_extendqisi2
 1474 0162 C3F38401 		ubfx	r1, r3, #2, #5
 1475 0166 9DF80B30 		ldrb	r3, [sp, #11]	@ zero_extendqisi2
 1476 016a DA00     		lsls	r2, r3, #3
 1477 016c 02F01802 		and	r2, r2, #24
 1478 0170 02EB5312 		add	r2, r2, r3, lsr #5
 1479 0174 531C     		adds	r3, r2, #1
 1480 0176 01FB0333 		mla	r3, r1, r3, r3
 1481 017a 2360     		str	r3, [r4]
 1482              		.loc 1 466 0
 1483 017c 0024     		movs	r4, #0
 1484              	.LVL224:
 1485 017e 4BE0     		b	.L125
 1486              	.LVL225:
 1487              	.L130:
 467:..\..\FatFs/diskio.c **** 			}
 468:..\..\FatFs/diskio.c **** 		}
 469:..\..\FatFs/diskio.c **** 		break;
 470:..\..\FatFs/diskio.c **** 
 471:..\..\FatFs/diskio.c **** 	case CTRL_TRIM :	/* Erase a block of sectors (used when _USE_ERASE == 1) */
 472:..\..\FatFs/diskio.c **** 		if (!(CardType & CT_SDC)) break;				/* Check if the card is SDC */
 1488              		.loc 1 472 0
 1489 0180 2B4A     		ldr	r2, .L157+4
 1490              	.LVL226:
 1491 0182 1278     		ldrb	r2, [r2]	@ zero_extendqisi2
 1492 0184 12F0060F 		tst	r2, #6
 1493 0188 39D0     		beq	.L148
 473:..\..\FatFs/diskio.c **** 		if (disk_ioctl(drv, MMC_GET_CSD, csd)) break;	/* Get CSD */
 1494              		.loc 1 473 0
 1495 018a 6A46     		mov	r2, sp
 1496 018c 0B21     		movs	r1, #11
 1497              	.LVL227:
 1498 018e FFF7FEFF 		bl	disk_ioctl
 1499              	.LVL228:
 1500 0192 B0BB     		cbnz	r0, .L149
 474:..\..\FatFs/diskio.c **** 		if (!(csd[0] >> 6) && !(csd[10] & 0x40)) break;	/* Check if sector erase can be applied to the ca
 1501              		.loc 1 474 0
 1502 0194 9DF80030 		ldrb	r3, [sp]	@ zero_extendqisi2
 1503 0198 9B09     		lsrs	r3, r3, #6
 1504 019a 04D1     		bne	.L136
 1505              		.loc 1 474 0 is_stmt 0 discriminator 1
 1506 019c 9DF80A30 		ldrb	r3, [sp, #10]	@ zero_extendqisi2
ARM GAS  C:\Users\wa2n8\AppData\Local\Temp\ccuOGNYz.s 			page 37


 1507 01a0 13F0400F 		tst	r3, #64
 1508 01a4 2FD0     		beq	.L150
 1509              	.L136:
 1510              	.LVL229:
 475:..\..\FatFs/diskio.c **** 		dp = buff; st = dp[0]; ed = dp[1];				/* Load sector block */
 1511              		.loc 1 475 0 is_stmt 1
 1512 01a6 2168     		ldr	r1, [r4]
 1513              	.LVL230:
 1514 01a8 6468     		ldr	r4, [r4, #4]
 1515              	.LVL231:
 476:..\..\FatFs/diskio.c **** 		if (!(CardType & CT_BLOCK)) {
 1516              		.loc 1 476 0
 1517 01aa 214B     		ldr	r3, .L157+4
 1518 01ac 1B78     		ldrb	r3, [r3]	@ zero_extendqisi2
 1519 01ae 13F0080F 		tst	r3, #8
 1520 01b2 01D1     		bne	.L137
 477:..\..\FatFs/diskio.c **** 			st *= 512; ed *= 512;
 1521              		.loc 1 477 0
 1522 01b4 4902     		lsls	r1, r1, #9
 1523              	.LVL232:
 1524 01b6 6402     		lsls	r4, r4, #9
 1525              	.LVL233:
 1526              	.L137:
 478:..\..\FatFs/diskio.c **** 		}
 479:..\..\FatFs/diskio.c **** 		if (send_cmd(CMD32, st) == 0 && send_cmd(CMD33, ed) == 0 && send_cmd(CMD38, 0) == 0 && wait_ready
 1527              		.loc 1 479 0
 1528 01b8 2020     		movs	r0, #32
 1529 01ba FFF7FEFF 		bl	send_cmd
 1530              	.LVL234:
 1531 01be 20BB     		cbnz	r0, .L151
 1532              		.loc 1 479 0 is_stmt 0 discriminator 1
 1533 01c0 2146     		mov	r1, r4
 1534 01c2 2120     		movs	r0, #33
 1535 01c4 FFF7FEFF 		bl	send_cmd
 1536              	.LVL235:
 1537 01c8 08BB     		cbnz	r0, .L152
 1538              		.loc 1 479 0 discriminator 2
 1539 01ca 0021     		movs	r1, #0
 1540 01cc 2620     		movs	r0, #38
 1541 01ce FFF7FEFF 		bl	send_cmd
 1542              	.LVL236:
 1543 01d2 F0B9     		cbnz	r0, .L153
 1544              		.loc 1 479 0 discriminator 3
 1545 01d4 47F23050 		movw	r0, #30000
 1546 01d8 FFF7FEFF 		bl	wait_ready
 1547              	.LVL237:
 1548 01dc D8B9     		cbnz	r0, .L154
 428:..\..\FatFs/diskio.c **** 
 1549              		.loc 1 428 0 is_stmt 1
 1550 01de 0124     		movs	r4, #1
 1551              	.LVL238:
 1552 01e0 1AE0     		b	.L125
 1553              	.LVL239:
 1554              	.L140:
 480:..\..\FatFs/diskio.c **** 			res = RES_OK;	/* FatFs does not check result of this command */
 481:..\..\FatFs/diskio.c **** 		break;
 482:..\..\FatFs/diskio.c **** 
ARM GAS  C:\Users\wa2n8\AppData\Local\Temp\ccuOGNYz.s 			page 38


 483:..\..\FatFs/diskio.c **** 	default:
 484:..\..\FatFs/diskio.c **** 		res = RES_PARERR;
 1555              		.loc 1 484 0
 1556 01e2 0424     		movs	r4, #4
 1557 01e4 18E0     		b	.L125
 1558              	.LVL240:
 1559              	.L141:
 432:..\..\FatFs/diskio.c **** 		break;
 1560              		.loc 1 432 0
 1561 01e6 0024     		movs	r4, #0
 1562              	.LVL241:
 1563 01e8 16E0     		b	.L125
 1564              	.LVL242:
 1565              	.L142:
 428:..\..\FatFs/diskio.c **** 
 1566              		.loc 1 428 0
 1567 01ea 0124     		movs	r4, #1
 1568              	.LVL243:
 1569 01ec 14E0     		b	.L125
 1570              	.LVL244:
 1571              	.L143:
 1572 01ee 0124     		movs	r4, #1
 1573              	.LVL245:
 1574 01f0 12E0     		b	.L125
 1575              	.LVL246:
 1576              	.L144:
 1577 01f2 0124     		movs	r4, #1
 1578              	.LVL247:
 1579 01f4 10E0     		b	.L125
 1580              	.LVL248:
 1581              	.L146:
 1582 01f6 0124     		movs	r4, #1
 1583              	.LVL249:
 1584 01f8 0EE0     		b	.L125
 1585              	.LVL250:
 1586              	.L147:
 1587 01fa 0124     		movs	r4, #1
 1588              	.LVL251:
 1589 01fc 0CE0     		b	.L125
 1590              	.LVL252:
 1591              	.L148:
 1592 01fe 0124     		movs	r4, #1
 1593              	.LVL253:
 1594 0200 0AE0     		b	.L125
 1595              	.LVL254:
 1596              	.L149:
 1597 0202 0124     		movs	r4, #1
 1598              	.LVL255:
 1599 0204 08E0     		b	.L125
 1600              	.LVL256:
 1601              	.L150:
 1602 0206 0124     		movs	r4, #1
 1603              	.LVL257:
 1604 0208 06E0     		b	.L125
 1605              	.LVL258:
 1606              	.L151:
 1607 020a 0124     		movs	r4, #1
ARM GAS  C:\Users\wa2n8\AppData\Local\Temp\ccuOGNYz.s 			page 39


 1608              	.LVL259:
 1609 020c 04E0     		b	.L125
 1610              	.LVL260:
 1611              	.L152:
 1612 020e 0124     		movs	r4, #1
 1613              	.LVL261:
 1614 0210 02E0     		b	.L125
 1615              	.LVL262:
 1616              	.L153:
 1617 0212 0124     		movs	r4, #1
 1618              	.LVL263:
 1619 0214 00E0     		b	.L125
 1620              	.LVL264:
 1621              	.L154:
 480:..\..\FatFs/diskio.c **** 			res = RES_OK;	/* FatFs does not check result of this command */
 1622              		.loc 1 480 0
 1623 0216 0024     		movs	r4, #0
 1624              	.LVL265:
 1625              	.L125:
 485:..\..\FatFs/diskio.c **** 	}
 486:..\..\FatFs/diskio.c **** 
 487:..\..\FatFs/diskio.c **** 	deselect();
 1626              		.loc 1 487 0
 1627 0218 FFF7FEFF 		bl	deselect
 1628              	.LVL266:
 488:..\..\FatFs/diskio.c **** 
 489:..\..\FatFs/diskio.c **** 	return res;
 1629              		.loc 1 489 0
 1630 021c 2046     		mov	r0, r4
 1631 021e 03E0     		b	.L124
 1632              	.LVL267:
 1633              	.L138:
 1634              		.cfi_def_cfa_offset 0
 1635              		.cfi_restore 4
 1636              		.cfi_restore 5
 1637              		.cfi_restore 14
 425:..\..\FatFs/diskio.c **** 	if (Stat & STA_NOINIT) return RES_NOTRDY;	/* Check if drive is ready */
 1638              		.loc 1 425 0
 1639 0220 0420     		movs	r0, #4
 1640              	.LVL268:
 1641 0222 7047     		bx	lr
 1642              	.L139:
 426:..\..\FatFs/diskio.c **** 
 1643              		.loc 1 426 0
 1644 0224 0320     		movs	r0, #3
 1645 0226 7047     		bx	lr
 1646              	.LVL269:
 1647              	.L124:
 1648              		.cfi_def_cfa_offset 32
 1649              		.cfi_offset 4, -12
 1650              		.cfi_offset 5, -8
 1651              		.cfi_offset 14, -4
 490:..\..\FatFs/diskio.c **** }
 1652              		.loc 1 490 0
 1653 0228 05B0     		add	sp, sp, #20
 1654              		.cfi_def_cfa_offset 12
 1655              		@ sp needed
ARM GAS  C:\Users\wa2n8\AppData\Local\Temp\ccuOGNYz.s 			page 40


 1656 022a 30BD     		pop	{r4, r5, pc}
 1657              	.LVL270:
 1658              	.L158:
 1659              		.align	2
 1660              	.L157:
 1661 022c 00000000 		.word	.LANCHOR0
 1662 0230 00000000 		.word	.LANCHOR1
 1663              		.cfi_endproc
 1664              	.LFE77:
 1665              		.size	disk_ioctl, .-disk_ioctl
 1666              		.data
 1667              		.set	.LANCHOR0,. + 0
 1668              		.type	Stat, %object
 1669              		.size	Stat, 1
 1670              	Stat:
 1671 0000 01       		.byte	1
 1672              		.bss
 1673              		.set	.LANCHOR1,. + 0
 1674              		.type	CardType, %object
 1675              		.size	CardType, 1
 1676              	CardType:
 1677 0000 00       		.space	1
 1678              		.text
 1679              	.Letext0:
 1680              		.file 2 "c:\\program files (x86)\\cypress\\psoc creator\\4.2\\psoc creator\\import\\gnu\\arm\\5.4.
 1681              		.file 3 "c:\\program files (x86)\\cypress\\psoc creator\\4.2\\psoc creator\\import\\gnu\\arm\\5.4.
 1682              		.file 4 "..\\..\\FatFs\\ff.h"
 1683              		.file 5 "..\\..\\FatFs\\diskio.h"
 1684              		.file 6 "Generated_Source\\PSoC5/cytypes.h"
 1685              		.file 7 "Generated_Source\\PSoC5/SD_CS.h"
 1686              		.file 8 "Generated_Source\\PSoC5/CyLib.h"
 1687              		.file 9 "Generated_Source\\PSoC5/SPIM_SD.h"
 1688              		.file 10 "Generated_Source\\PSoC5/SD_Clock.h"
 1689              		.file 11 "Generated_Source\\PSoC5/core_cm3.h"