ARM GAS  C:\Users\wa2n8\AppData\Local\Temp\ccQjiidk.s 			page 1


   1              		.syntax unified
   2              		.cpu cortex-m3
   3              		.fpu softvfp
   4              		.eabi_attribute 20, 1
   5              		.eabi_attribute 21, 1
   6              		.eabi_attribute 23, 3
   7              		.eabi_attribute 24, 1
   8              		.eabi_attribute 25, 1
   9              		.eabi_attribute 26, 1
  10              		.eabi_attribute 30, 1
  11              		.eabi_attribute 34, 1
  12              		.eabi_attribute 18, 4
  13              		.thumb
  14              		.syntax unified
  15              		.file	"sdcard.c"
  16              		.text
  17              	.Ltext0:
  18              		.cfi_sections	.debug_frame
  19              		.section	.text.xmit_mmc,"ax",%progbits
  20              		.align	2
  21              		.thumb
  22              		.thumb_func
  23              		.type	xmit_mmc, %function
  24              	xmit_mmc:
  25              	.LFB63:
  26              		.file 1 "..\\..\\..\\..\\PSoC_FatFs-master\\PSoC_FatFs_Library\\sdcard.c"
   1:..\..\..\..\PSoC_FatFs-master\PSoC_FatFs_Library/sdcard.c **** /*------------------------------------------------------------------------/
   2:..\..\..\..\PSoC_FatFs-master\PSoC_FatFs_Library/sdcard.c **** /  Foolproof MMCv3/SDv1/SDv2 (in SPI mode) control module
   3:..\..\..\..\PSoC_FatFs-master\PSoC_FatFs_Library/sdcard.c **** /-------------------------------------------------------------------------/
   4:..\..\..\..\PSoC_FatFs-master\PSoC_FatFs_Library/sdcard.c **** /
   5:..\..\..\..\PSoC_FatFs-master\PSoC_FatFs_Library/sdcard.c **** /  Copyright (C) 2013, ChaN, all right reserved.
   6:..\..\..\..\PSoC_FatFs-master\PSoC_FatFs_Library/sdcard.c **** /
   7:..\..\..\..\PSoC_FatFs-master\PSoC_FatFs_Library/sdcard.c **** / * This software is a free software and there is NO WARRANTY.
   8:..\..\..\..\PSoC_FatFs-master\PSoC_FatFs_Library/sdcard.c **** / * No restriction on use. You can use, modify and redistribute it for
   9:..\..\..\..\PSoC_FatFs-master\PSoC_FatFs_Library/sdcard.c **** /   personal, non-profit or commercial products UNDER YOUR RESPONSIBILITY.
  10:..\..\..\..\PSoC_FatFs-master\PSoC_FatFs_Library/sdcard.c **** / * Redistributions of source code must retain the above copyright notice.
  11:..\..\..\..\PSoC_FatFs-master\PSoC_FatFs_Library/sdcard.c **** /
  12:..\..\..\..\PSoC_FatFs-master\PSoC_FatFs_Library/sdcard.c **** /-------------------------------------------------------------------------/
  13:..\..\..\..\PSoC_FatFs-master\PSoC_FatFs_Library/sdcard.c ****   Features and Limitations:
  14:..\..\..\..\PSoC_FatFs-master\PSoC_FatFs_Library/sdcard.c **** 
  15:..\..\..\..\PSoC_FatFs-master\PSoC_FatFs_Library/sdcard.c ****   * Easy to Port Bit-banging SPI
  16:..\..\..\..\PSoC_FatFs-master\PSoC_FatFs_Library/sdcard.c ****     It uses only four GPIO pins. No complex peripheral needs to be used.
  17:..\..\..\..\PSoC_FatFs-master\PSoC_FatFs_Library/sdcard.c **** 
  18:..\..\..\..\PSoC_FatFs-master\PSoC_FatFs_Library/sdcard.c ****   * No Media Change Detection
  19:..\..\..\..\PSoC_FatFs-master\PSoC_FatFs_Library/sdcard.c ****     Application program needs to perform a f_mount() after media change.
  20:..\..\..\..\PSoC_FatFs-master\PSoC_FatFs_Library/sdcard.c **** 
  21:..\..\..\..\PSoC_FatFs-master\PSoC_FatFs_Library/sdcard.c **** /-------------------------------------------------------------------------*/
  22:..\..\..\..\PSoC_FatFs-master\PSoC_FatFs_Library/sdcard.c **** 
  23:..\..\..\..\PSoC_FatFs-master\PSoC_FatFs_Library/sdcard.c **** 
  24:..\..\..\..\PSoC_FatFs-master\PSoC_FatFs_Library/sdcard.c **** #include "diskio.h"		/* Common include file for FatFs and disk I/O layer */
  25:..\..\..\..\PSoC_FatFs-master\PSoC_FatFs_Library/sdcard.c **** 
  26:..\..\..\..\PSoC_FatFs-master\PSoC_FatFs_Library/sdcard.c **** 
  27:..\..\..\..\PSoC_FatFs-master\PSoC_FatFs_Library/sdcard.c **** /*-------------------------------------------------------------------------*/
  28:..\..\..\..\PSoC_FatFs-master\PSoC_FatFs_Library/sdcard.c **** /* Platform dependent macros and functions needed to be modified           */
  29:..\..\..\..\PSoC_FatFs-master\PSoC_FatFs_Library/sdcard.c **** /*-------------------------------------------------------------------------*/
  30:..\..\..\..\PSoC_FatFs-master\PSoC_FatFs_Library/sdcard.c **** 
  31:..\..\..\..\PSoC_FatFs-master\PSoC_FatFs_Library/sdcard.c **** #include <project.h>
ARM GAS  C:\Users\wa2n8\AppData\Local\Temp\ccQjiidk.s 			page 2


  32:..\..\..\..\PSoC_FatFs-master\PSoC_FatFs_Library/sdcard.c **** #include <cytypes.h>
  33:..\..\..\..\PSoC_FatFs-master\PSoC_FatFs_Library/sdcard.c **** 
  34:..\..\..\..\PSoC_FatFs-master\PSoC_FatFs_Library/sdcard.c ****     /* Put here the same name of the SPI bus module you have used in schematic. */
  35:..\..\..\..\PSoC_FatFs-master\PSoC_FatFs_Library/sdcard.c **** #define SPI_NAME                SPI  
  36:..\..\..\..\PSoC_FatFs-master\PSoC_FatFs_Library/sdcard.c ****     /* Put here function used to control SPI SS line.
  37:..\..\..\..\PSoC_FatFs-master\PSoC_FatFs_Library/sdcard.c ****        Example: 
  38:..\..\..\..\PSoC_FatFs-master\PSoC_FatFs_Library/sdcard.c ****         - if using Cypress API macros: SPI_ss0_m_Write
  39:..\..\..\..\PSoC_FatFs-master\PSoC_FatFs_Library/sdcard.c ****         - if using another gpio pint: SPI_SS_Write. */
  40:..\..\..\..\PSoC_FatFs-master\PSoC_FatFs_Library/sdcard.c **** //#define mmSPI_SS_Write(value)   SPI_ss0_m_Write(value)
  41:..\..\..\..\PSoC_FatFs-master\PSoC_FatFs_Library/sdcard.c **** #define mmSPI_SS_Write(value)     SPI_SS_Write(value)        
  42:..\..\..\..\PSoC_FatFs-master\PSoC_FatFs_Library/sdcard.c **** 
  43:..\..\..\..\PSoC_FatFs-master\PSoC_FatFs_Library/sdcard.c **** #define CS_DELAY_US             1
  44:..\..\..\..\PSoC_FatFs-master\PSoC_FatFs_Library/sdcard.c **** #define M_DELAY_US              100
  45:..\..\..\..\PSoC_FatFs-master\PSoC_FatFs_Library/sdcard.c **** 
  46:..\..\..\..\PSoC_FatFs-master\PSoC_FatFs_Library/sdcard.c ****     /* Text substitution macros to avoid changing function names related to SPI API
  47:..\..\..\..\PSoC_FatFs-master\PSoC_FatFs_Library/sdcard.c ****        if SPI module name is changed in schematic. */
  48:..\..\..\..\PSoC_FatFs-master\PSoC_FatFs_Library/sdcard.c **** 
  49:..\..\..\..\PSoC_FatFs-master\PSoC_FatFs_Library/sdcard.c **** #define CONCATENATE(name, function)                 CONCAT(name, function)
  50:..\..\..\..\PSoC_FatFs-master\PSoC_FatFs_Library/sdcard.c **** #define CONCAT(name, function)                      name##function
  51:..\..\..\..\PSoC_FatFs-master\PSoC_FatFs_Library/sdcard.c **** 
  52:..\..\..\..\PSoC_FatFs-master\PSoC_FatFs_Library/sdcard.c **** #if (CY_PSOC4)
  53:..\..\..\..\PSoC_FatFs-master\PSoC_FatFs_Library/sdcard.c **** 
  54:..\..\..\..\PSoC_FatFs-master\PSoC_FatFs_Library/sdcard.c ****     #define mmSPI_SpiUartClearTxBuffer                  CONCATENATE(SPI_NAME, _SpiUartClearTxBuffer
  55:..\..\..\..\PSoC_FatFs-master\PSoC_FatFs_Library/sdcard.c ****     #define mmSPI_SpiUartClearRxBuffer                  CONCATENATE(SPI_NAME, _SpiUartClearRxBuffer
  56:..\..\..\..\PSoC_FatFs-master\PSoC_FatFs_Library/sdcard.c ****     #define mmSPI_SpiUartPutArray(a, b)                 CONCATENATE(SPI_NAME, _SpiUartPutArray(a, b
  57:..\..\..\..\PSoC_FatFs-master\PSoC_FatFs_Library/sdcard.c ****     #define mmSPI_SpiUartWriteTxData(value)             CONCATENATE(SPI_NAME, _SpiUartWriteTxData(v
  58:..\..\..\..\PSoC_FatFs-master\PSoC_FatFs_Library/sdcard.c ****     #define mmSPI_SpiUartReadRxData                     CONCATENATE(SPI_NAME, _SpiUartReadRxData)
  59:..\..\..\..\PSoC_FatFs-master\PSoC_FatFs_Library/sdcard.c ****     #define mmSPI_GetMasterInterruptSource              CONCATENATE(SPI_NAME, _GetMasterInterruptSo
  60:..\..\..\..\PSoC_FatFs-master\PSoC_FatFs_Library/sdcard.c ****     #define mmSPI_ClearMasterInterruptSource(value)     CONCATENATE(SPI_NAME, _ClearMasterInterrupt
  61:..\..\..\..\PSoC_FatFs-master\PSoC_FatFs_Library/sdcard.c ****     #define mmSPI_INTR_MASTER_SPI_DONE                  CONCATENATE(SPI_NAME, _INTR_MASTER_SPI_DONE
  62:..\..\..\..\PSoC_FatFs-master\PSoC_FatFs_Library/sdcard.c ****     
  63:..\..\..\..\PSoC_FatFs-master\PSoC_FatFs_Library/sdcard.c **** #endif    
  64:..\..\..\..\PSoC_FatFs-master\PSoC_FatFs_Library/sdcard.c **** 
  65:..\..\..\..\PSoC_FatFs-master\PSoC_FatFs_Library/sdcard.c **** #if (CY_PSOC5LP) 
  66:..\..\..\..\PSoC_FatFs-master\PSoC_FatFs_Library/sdcard.c ****     #define mmSPI_SpiUartClearTxBuffer                  CONCATENATE(SPI_NAME, _ClearTxBuffer)
  67:..\..\..\..\PSoC_FatFs-master\PSoC_FatFs_Library/sdcard.c ****     #define mmSPI_SpiUartClearRxBuffer                  CONCATENATE(SPI_NAME, _ClearRxBuffer)    
  68:..\..\..\..\PSoC_FatFs-master\PSoC_FatFs_Library/sdcard.c ****     #define mmSPI_SpiUartPutArray(a, b)                 CONCATENATE(SPI_NAME, _PutArray(a, b)) 
  69:..\..\..\..\PSoC_FatFs-master\PSoC_FatFs_Library/sdcard.c ****     #define mmSPI_SpiUartWriteTxData(value)             CONCATENATE(SPI_NAME, _WriteTxData(value))
  70:..\..\..\..\PSoC_FatFs-master\PSoC_FatFs_Library/sdcard.c ****     #define mmSPI_SpiUartReadRxData                     CONCATENATE(SPI_NAME, _ReadRxData)
  71:..\..\..\..\PSoC_FatFs-master\PSoC_FatFs_Library/sdcard.c ****     #define mmSPI_GetMasterInterruptSource              CONCATENATE(SPI_NAME, _GetMasterInterruptSo
  72:..\..\..\..\PSoC_FatFs-master\PSoC_FatFs_Library/sdcard.c ****     #define mmSPI_ClearMasterInterruptSource(value)     CONCATENATE(SPI_NAME, _ClearMasterInterrupt
  73:..\..\..\..\PSoC_FatFs-master\PSoC_FatFs_Library/sdcard.c ****     #define mmSPI_INTR_MASTER_SPI_DONE                  CONCATENATE(SPI_NAME, _INTR_MASTER_SPI_DONE
  74:..\..\..\..\PSoC_FatFs-master\PSoC_FatFs_Library/sdcard.c **** #endif 
  75:..\..\..\..\PSoC_FatFs-master\PSoC_FatFs_Library/sdcard.c **** 
  76:..\..\..\..\PSoC_FatFs-master\PSoC_FatFs_Library/sdcard.c ****     /* Delays. */
  77:..\..\..\..\PSoC_FatFs-master\PSoC_FatFs_Library/sdcard.c **** #define dly_us(n)               CyDelayUs(n); /* Delay n microseconds. */
  78:..\..\..\..\PSoC_FatFs-master\PSoC_FatFs_Library/sdcard.c **** 
  79:..\..\..\..\PSoC_FatFs-master\PSoC_FatFs_Library/sdcard.c **** /*--------------------------------------------------------------------------
  80:..\..\..\..\PSoC_FatFs-master\PSoC_FatFs_Library/sdcard.c **** 
  81:..\..\..\..\PSoC_FatFs-master\PSoC_FatFs_Library/sdcard.c ****    Module Private Functions
  82:..\..\..\..\PSoC_FatFs-master\PSoC_FatFs_Library/sdcard.c **** 
  83:..\..\..\..\PSoC_FatFs-master\PSoC_FatFs_Library/sdcard.c **** ---------------------------------------------------------------------------*/
  84:..\..\..\..\PSoC_FatFs-master\PSoC_FatFs_Library/sdcard.c **** 
  85:..\..\..\..\PSoC_FatFs-master\PSoC_FatFs_Library/sdcard.c **** /* MMC/SD command (SPI mode) */
  86:..\..\..\..\PSoC_FatFs-master\PSoC_FatFs_Library/sdcard.c **** #define CMD0	(0)			/* GO_IDLE_STATE */
  87:..\..\..\..\PSoC_FatFs-master\PSoC_FatFs_Library/sdcard.c **** #define CMD1	(1)			/* SEND_OP_COND */
  88:..\..\..\..\PSoC_FatFs-master\PSoC_FatFs_Library/sdcard.c **** #define	ACMD41	(0x80+41)	/* SEND_OP_COND (SDC) */
ARM GAS  C:\Users\wa2n8\AppData\Local\Temp\ccQjiidk.s 			page 3


  89:..\..\..\..\PSoC_FatFs-master\PSoC_FatFs_Library/sdcard.c **** #define CMD8	(8)			/* SEND_IF_COND */
  90:..\..\..\..\PSoC_FatFs-master\PSoC_FatFs_Library/sdcard.c **** #define CMD9	(9)			/* SEND_CSD */
  91:..\..\..\..\PSoC_FatFs-master\PSoC_FatFs_Library/sdcard.c **** #define CMD10	(10)		/* SEND_CID */
  92:..\..\..\..\PSoC_FatFs-master\PSoC_FatFs_Library/sdcard.c **** #define CMD12	(12)		/* STOP_TRANSMISSION */
  93:..\..\..\..\PSoC_FatFs-master\PSoC_FatFs_Library/sdcard.c **** #define CMD13	(13)		/* SEND_STATUS */
  94:..\..\..\..\PSoC_FatFs-master\PSoC_FatFs_Library/sdcard.c **** #define ACMD13	(0x80+13)	/* SD_STATUS (SDC) */
  95:..\..\..\..\PSoC_FatFs-master\PSoC_FatFs_Library/sdcard.c **** #define CMD16	(16)		/* SET_BLOCKLEN */
  96:..\..\..\..\PSoC_FatFs-master\PSoC_FatFs_Library/sdcard.c **** #define CMD17	(17)		/* READ_SINGLE_BLOCK */
  97:..\..\..\..\PSoC_FatFs-master\PSoC_FatFs_Library/sdcard.c **** #define CMD18	(18)		/* READ_MULTIPLE_BLOCK */
  98:..\..\..\..\PSoC_FatFs-master\PSoC_FatFs_Library/sdcard.c **** #define CMD23	(23)		/* SET_BLOCK_COUNT */
  99:..\..\..\..\PSoC_FatFs-master\PSoC_FatFs_Library/sdcard.c **** #define	ACMD23	(0x80+23)	/* SET_WR_BLK_ERASE_COUNT (SDC) */
 100:..\..\..\..\PSoC_FatFs-master\PSoC_FatFs_Library/sdcard.c **** #define CMD24	(24)		/* WRITE_BLOCK */
 101:..\..\..\..\PSoC_FatFs-master\PSoC_FatFs_Library/sdcard.c **** #define CMD25	(25)		/* WRITE_MULTIPLE_BLOCK */
 102:..\..\..\..\PSoC_FatFs-master\PSoC_FatFs_Library/sdcard.c **** #define CMD32	(32)		/* ERASE_ER_BLK_START */
 103:..\..\..\..\PSoC_FatFs-master\PSoC_FatFs_Library/sdcard.c **** #define CMD33	(33)		/* ERASE_ER_BLK_END */
 104:..\..\..\..\PSoC_FatFs-master\PSoC_FatFs_Library/sdcard.c **** #define CMD38	(38)		/* ERASE */
 105:..\..\..\..\PSoC_FatFs-master\PSoC_FatFs_Library/sdcard.c **** #define CMD55	(55)		/* APP_CMD */
 106:..\..\..\..\PSoC_FatFs-master\PSoC_FatFs_Library/sdcard.c **** #define CMD58	(58)		/* READ_OCR */
 107:..\..\..\..\PSoC_FatFs-master\PSoC_FatFs_Library/sdcard.c **** 
 108:..\..\..\..\PSoC_FatFs-master\PSoC_FatFs_Library/sdcard.c **** 
 109:..\..\..\..\PSoC_FatFs-master\PSoC_FatFs_Library/sdcard.c **** static DSTATUS Stat = STA_NOINIT;	/* Disk status */
 110:..\..\..\..\PSoC_FatFs-master\PSoC_FatFs_Library/sdcard.c **** 
 111:..\..\..\..\PSoC_FatFs-master\PSoC_FatFs_Library/sdcard.c **** static BYTE CardType;			/* b0:MMC, b1:SDv1, b2:SDv2, b3:Block addressing */
 112:..\..\..\..\PSoC_FatFs-master\PSoC_FatFs_Library/sdcard.c **** 
 113:..\..\..\..\PSoC_FatFs-master\PSoC_FatFs_Library/sdcard.c **** /*-----------------------------------------------------------------------*/
 114:..\..\..\..\PSoC_FatFs-master\PSoC_FatFs_Library/sdcard.c **** /* Transmit bytes to the card                                            */
 115:..\..\..\..\PSoC_FatFs-master\PSoC_FatFs_Library/sdcard.c **** /*-----------------------------------------------------------------------*/
 116:..\..\..\..\PSoC_FatFs-master\PSoC_FatFs_Library/sdcard.c **** 
 117:..\..\..\..\PSoC_FatFs-master\PSoC_FatFs_Library/sdcard.c **** static void xmit_mmc(const BYTE* buff, UINT bc)
 118:..\..\..\..\PSoC_FatFs-master\PSoC_FatFs_Library/sdcard.c **** {
  27              		.loc 1 118 0
  28              		.cfi_startproc
  29              		@ args = 0, pretend = 0, frame = 0
  30              		@ frame_needed = 0, uses_anonymous_args = 0
  31              	.LVL0:
  32 0000 70B5     		push	{r4, r5, r6, lr}
  33              		.cfi_def_cfa_offset 16
  34              		.cfi_offset 4, -16
  35              		.cfi_offset 5, -12
  36              		.cfi_offset 6, -8
  37              		.cfi_offset 14, -4
  38 0002 0646     		mov	r6, r0
  39 0004 0D46     		mov	r5, r1
 119:..\..\..\..\PSoC_FatFs-master\PSoC_FatFs_Library/sdcard.c **** 
 120:..\..\..\..\PSoC_FatFs-master\PSoC_FatFs_Library/sdcard.c **** #if (CY_PSOC4)
 121:..\..\..\..\PSoC_FatFs-master\PSoC_FatFs_Library/sdcard.c **** 
 122:..\..\..\..\PSoC_FatFs-master\PSoC_FatFs_Library/sdcard.c ****     mmSPI_SpiUartClearTxBuffer();
 123:..\..\..\..\PSoC_FatFs-master\PSoC_FatFs_Library/sdcard.c ****     mmSPI_SpiUartClearRxBuffer();
 124:..\..\..\..\PSoC_FatFs-master\PSoC_FatFs_Library/sdcard.c ****     mmSPI_SpiUartPutArray(buff, bc);
 125:..\..\..\..\PSoC_FatFs-master\PSoC_FatFs_Library/sdcard.c **** 
 126:..\..\..\..\PSoC_FatFs-master\PSoC_FatFs_Library/sdcard.c ****     while(0u == (mmSPI_GetMasterInterruptSource() & mmSPI_INTR_MASTER_SPI_DONE));
 127:..\..\..\..\PSoC_FatFs-master\PSoC_FatFs_Library/sdcard.c ****     
 128:..\..\..\..\PSoC_FatFs-master\PSoC_FatFs_Library/sdcard.c **** #endif
 129:..\..\..\..\PSoC_FatFs-master\PSoC_FatFs_Library/sdcard.c **** 
 130:..\..\..\..\PSoC_FatFs-master\PSoC_FatFs_Library/sdcard.c **** #if (CY_PSOC5LP)
 131:..\..\..\..\PSoC_FatFs-master\PSoC_FatFs_Library/sdcard.c ****     
 132:..\..\..\..\PSoC_FatFs-master\PSoC_FatFs_Library/sdcard.c ****     UINT loop;
ARM GAS  C:\Users\wa2n8\AppData\Local\Temp\ccQjiidk.s 			page 4


 133:..\..\..\..\PSoC_FatFs-master\PSoC_FatFs_Library/sdcard.c ****     
 134:..\..\..\..\PSoC_FatFs-master\PSoC_FatFs_Library/sdcard.c ****     SPI_ClearTxBuffer();
  40              		.loc 1 134 0
  41 0006 FFF7FEFF 		bl	SPI_ClearTxBuffer
  42              	.LVL1:
 135:..\..\..\..\PSoC_FatFs-master\PSoC_FatFs_Library/sdcard.c ****     SPI_ClearRxBuffer();
  43              		.loc 1 135 0
  44 000a FFF7FEFF 		bl	SPI_ClearRxBuffer
  45              	.LVL2:
 136:..\..\..\..\PSoC_FatFs-master\PSoC_FatFs_Library/sdcard.c ****     
 137:..\..\..\..\PSoC_FatFs-master\PSoC_FatFs_Library/sdcard.c ****     for (loop = 0; loop < bc; loop++)
  46              		.loc 1 137 0
  47 000e 0024     		movs	r4, #0
  48 0010 03E0     		b	.L2
  49              	.LVL3:
  50              	.L3:
  51              	.LBB2:
 138:..\..\..\..\PSoC_FatFs-master\PSoC_FatFs_Library/sdcard.c ****         SPI_WriteTxData(buff[loop]);
  52              		.loc 1 138 0 discriminator 3
  53 0012 305D     		ldrb	r0, [r6, r4]	@ zero_extendqisi2
  54 0014 FFF7FEFF 		bl	SPI_WriteTxData
  55              	.LVL4:
  56              	.LBE2:
 137:..\..\..\..\PSoC_FatFs-master\PSoC_FatFs_Library/sdcard.c ****         SPI_WriteTxData(buff[loop]);
  57              		.loc 1 137 0 discriminator 3
  58 0018 0134     		adds	r4, r4, #1
  59              	.LVL5:
  60              	.L2:
 137:..\..\..\..\PSoC_FatFs-master\PSoC_FatFs_Library/sdcard.c ****         SPI_WriteTxData(buff[loop]);
  61              		.loc 1 137 0 is_stmt 0 discriminator 1
  62 001a AC42     		cmp	r4, r5
  63 001c F9D3     		bcc	.L3
  64              	.L4:
  65              	.LBB3:
 139:..\..\..\..\PSoC_FatFs-master\PSoC_FatFs_Library/sdcard.c ****     
 140:..\..\..\..\PSoC_FatFs-master\PSoC_FatFs_Library/sdcard.c ****     while (SPI_GetTxBufferSize()) {};
  66              		.loc 1 140 0 is_stmt 1 discriminator 1
  67 001e FFF7FEFF 		bl	SPI_GetTxBufferSize
  68              	.LVL6:
  69 0022 0028     		cmp	r0, #0
  70 0024 FBD1     		bne	.L4
  71              	.LBE3:
 141:..\..\..\..\PSoC_FatFs-master\PSoC_FatFs_Library/sdcard.c ****     
 142:..\..\..\..\PSoC_FatFs-master\PSoC_FatFs_Library/sdcard.c **** #endif    
 143:..\..\..\..\PSoC_FatFs-master\PSoC_FatFs_Library/sdcard.c **** }
  72              		.loc 1 143 0
  73 0026 70BD     		pop	{r4, r5, r6, pc}
  74              		.cfi_endproc
  75              	.LFE63:
  76              		.size	xmit_mmc, .-xmit_mmc
  77              		.section	.text.rcvr_mmc,"ax",%progbits
  78              		.align	2
  79              		.thumb
  80              		.thumb_func
  81              		.type	rcvr_mmc, %function
  82              	rcvr_mmc:
  83              	.LFB64:
ARM GAS  C:\Users\wa2n8\AppData\Local\Temp\ccQjiidk.s 			page 5


 144:..\..\..\..\PSoC_FatFs-master\PSoC_FatFs_Library/sdcard.c **** 
 145:..\..\..\..\PSoC_FatFs-master\PSoC_FatFs_Library/sdcard.c **** 
 146:..\..\..\..\PSoC_FatFs-master\PSoC_FatFs_Library/sdcard.c **** 
 147:..\..\..\..\PSoC_FatFs-master\PSoC_FatFs_Library/sdcard.c **** /*-----------------------------------------------------------------------*/
 148:..\..\..\..\PSoC_FatFs-master\PSoC_FatFs_Library/sdcard.c **** /* Receive bytes from the card                                           */
 149:..\..\..\..\PSoC_FatFs-master\PSoC_FatFs_Library/sdcard.c **** /*-----------------------------------------------------------------------*/
 150:..\..\..\..\PSoC_FatFs-master\PSoC_FatFs_Library/sdcard.c **** 
 151:..\..\..\..\PSoC_FatFs-master\PSoC_FatFs_Library/sdcard.c **** static void rcvr_mmc(BYTE *buff, UINT bc)
 152:..\..\..\..\PSoC_FatFs-master\PSoC_FatFs_Library/sdcard.c **** {
  84              		.loc 1 152 0
  85              		.cfi_startproc
  86              		@ args = 0, pretend = 0, frame = 0
  87              		@ frame_needed = 0, uses_anonymous_args = 0
  88              	.LVL7:
  89 0000 70B5     		push	{r4, r5, r6, lr}
  90              		.cfi_def_cfa_offset 16
  91              		.cfi_offset 4, -16
  92              		.cfi_offset 5, -12
  93              		.cfi_offset 6, -8
  94              		.cfi_offset 14, -4
  95 0002 0546     		mov	r5, r0
  96 0004 0C46     		mov	r4, r1
 153:..\..\..\..\PSoC_FatFs-master\PSoC_FatFs_Library/sdcard.c **** 
 154:..\..\..\..\PSoC_FatFs-master\PSoC_FatFs_Library/sdcard.c **** #if (CY_PSOC4) 
 155:..\..\..\..\PSoC_FatFs-master\PSoC_FatFs_Library/sdcard.c ****     
 156:..\..\..\..\PSoC_FatFs-master\PSoC_FatFs_Library/sdcard.c ****     mmSPI_SpiUartClearTxBuffer();
 157:..\..\..\..\PSoC_FatFs-master\PSoC_FatFs_Library/sdcard.c ****     mmSPI_SpiUartClearRxBuffer();
 158:..\..\..\..\PSoC_FatFs-master\PSoC_FatFs_Library/sdcard.c ****     
 159:..\..\..\..\PSoC_FatFs-master\PSoC_FatFs_Library/sdcard.c ****     do
 160:..\..\..\..\PSoC_FatFs-master\PSoC_FatFs_Library/sdcard.c ****     {
 161:..\..\..\..\PSoC_FatFs-master\PSoC_FatFs_Library/sdcard.c **** 
 162:..\..\..\..\PSoC_FatFs-master\PSoC_FatFs_Library/sdcard.c ****         mmSPI_SpiUartWriteTxData(0xFF);
 163:..\..\..\..\PSoC_FatFs-master\PSoC_FatFs_Library/sdcard.c ****         while(0u == (mmSPI_GetMasterInterruptSource() & mmSPI_INTR_MASTER_SPI_DONE));
 164:..\..\..\..\PSoC_FatFs-master\PSoC_FatFs_Library/sdcard.c ****         CyDelayUs(M_DELAY_US); // <*> adjust, why?
 165:..\..\..\..\PSoC_FatFs-master\PSoC_FatFs_Library/sdcard.c ****         *buff++ = (BYTE)mmSPI_SpiUartReadRxData();
 166:..\..\..\..\PSoC_FatFs-master\PSoC_FatFs_Library/sdcard.c **** 
 167:..\..\..\..\PSoC_FatFs-master\PSoC_FatFs_Library/sdcard.c ****     } while (--bc);   
 168:..\..\..\..\PSoC_FatFs-master\PSoC_FatFs_Library/sdcard.c ****     
 169:..\..\..\..\PSoC_FatFs-master\PSoC_FatFs_Library/sdcard.c **** #endif    
 170:..\..\..\..\PSoC_FatFs-master\PSoC_FatFs_Library/sdcard.c ****     
 171:..\..\..\..\PSoC_FatFs-master\PSoC_FatFs_Library/sdcard.c **** #if (CY_PSOC5LP)
 172:..\..\..\..\PSoC_FatFs-master\PSoC_FatFs_Library/sdcard.c ****     
 173:..\..\..\..\PSoC_FatFs-master\PSoC_FatFs_Library/sdcard.c ****     SPI_ClearTxBuffer();
  97              		.loc 1 173 0
  98 0006 FFF7FEFF 		bl	SPI_ClearTxBuffer
  99              	.LVL8:
 174:..\..\..\..\PSoC_FatFs-master\PSoC_FatFs_Library/sdcard.c ****     SPI_ClearRxBuffer();
 100              		.loc 1 174 0
 101 000a FFF7FEFF 		bl	SPI_ClearRxBuffer
 102              	.LVL9:
 103 000e 00E0     		b	.L8
 104              	.LVL10:
 105              	.L9:
 106              	.LBB4:
 175:..\..\..\..\PSoC_FatFs-master\PSoC_FatFs_Library/sdcard.c ****     
 176:..\..\..\..\PSoC_FatFs-master\PSoC_FatFs_Library/sdcard.c ****     do
 177:..\..\..\..\PSoC_FatFs-master\PSoC_FatFs_Library/sdcard.c ****     {
ARM GAS  C:\Users\wa2n8\AppData\Local\Temp\ccQjiidk.s 			page 6


 178:..\..\..\..\PSoC_FatFs-master\PSoC_FatFs_Library/sdcard.c **** 
 179:..\..\..\..\PSoC_FatFs-master\PSoC_FatFs_Library/sdcard.c ****         SPI_WriteTxData(0xFF);
 180:..\..\..\..\PSoC_FatFs-master\PSoC_FatFs_Library/sdcard.c ****         while (SPI_GetTxBufferSize()) {};
 181:..\..\..\..\PSoC_FatFs-master\PSoC_FatFs_Library/sdcard.c ****         CyDelayUs(M_DELAY_US); // <*> adjust, why?
 182:..\..\..\..\PSoC_FatFs-master\PSoC_FatFs_Library/sdcard.c ****         *buff++ = (BYTE)SPI_ReadRxData();
 107              		.loc 1 182 0
 108 0010 3546     		mov	r5, r6
 109              	.LVL11:
 110              	.L8:
 179:..\..\..\..\PSoC_FatFs-master\PSoC_FatFs_Library/sdcard.c ****         while (SPI_GetTxBufferSize()) {};
 111              		.loc 1 179 0
 112 0012 FF20     		movs	r0, #255
 113 0014 FFF7FEFF 		bl	SPI_WriteTxData
 114              	.LVL12:
 115              	.L7:
 116              	.LBB5:
 180:..\..\..\..\PSoC_FatFs-master\PSoC_FatFs_Library/sdcard.c ****         CyDelayUs(M_DELAY_US); // <*> adjust, why?
 117              		.loc 1 180 0 discriminator 1
 118 0018 FFF7FEFF 		bl	SPI_GetTxBufferSize
 119              	.LVL13:
 120 001c 0028     		cmp	r0, #0
 121 001e FBD1     		bne	.L7
 122              	.LBE5:
 181:..\..\..\..\PSoC_FatFs-master\PSoC_FatFs_Library/sdcard.c ****         *buff++ = (BYTE)SPI_ReadRxData();
 123              		.loc 1 181 0
 124 0020 6420     		movs	r0, #100
 125 0022 FFF7FEFF 		bl	CyDelayUs
 126              	.LVL14:
 127              		.loc 1 182 0
 128 0026 6E1C     		adds	r6, r5, #1
 129              	.LVL15:
 130 0028 FFF7FEFF 		bl	SPI_ReadRxData
 131              	.LVL16:
 132 002c 2870     		strb	r0, [r5]
 133              	.LVL17:
 134              	.LBE4:
 183:..\..\..\..\PSoC_FatFs-master\PSoC_FatFs_Library/sdcard.c **** 
 184:..\..\..\..\PSoC_FatFs-master\PSoC_FatFs_Library/sdcard.c ****     } while (--bc);    
 135              		.loc 1 184 0
 136 002e 013C     		subs	r4, r4, #1
 137              	.LVL18:
 138 0030 EED1     		bne	.L9
 185:..\..\..\..\PSoC_FatFs-master\PSoC_FatFs_Library/sdcard.c ****     
 186:..\..\..\..\PSoC_FatFs-master\PSoC_FatFs_Library/sdcard.c **** #endif        
 187:..\..\..\..\PSoC_FatFs-master\PSoC_FatFs_Library/sdcard.c **** 
 188:..\..\..\..\PSoC_FatFs-master\PSoC_FatFs_Library/sdcard.c **** }
 139              		.loc 1 188 0
 140 0032 70BD     		pop	{r4, r5, r6, pc}
 141              		.cfi_endproc
 142              	.LFE64:
 143              		.size	rcvr_mmc, .-rcvr_mmc
 144              		.section	.text.wait_ready,"ax",%progbits
 145              		.align	2
 146              		.thumb
 147              		.thumb_func
 148              		.type	wait_ready, %function
 149              	wait_ready:
ARM GAS  C:\Users\wa2n8\AppData\Local\Temp\ccQjiidk.s 			page 7


 150              	.LFB65:
 189:..\..\..\..\PSoC_FatFs-master\PSoC_FatFs_Library/sdcard.c **** 
 190:..\..\..\..\PSoC_FatFs-master\PSoC_FatFs_Library/sdcard.c **** 
 191:..\..\..\..\PSoC_FatFs-master\PSoC_FatFs_Library/sdcard.c **** 
 192:..\..\..\..\PSoC_FatFs-master\PSoC_FatFs_Library/sdcard.c **** /*-----------------------------------------------------------------------*/
 193:..\..\..\..\PSoC_FatFs-master\PSoC_FatFs_Library/sdcard.c **** /* Wait for card ready                                                   */
 194:..\..\..\..\PSoC_FatFs-master\PSoC_FatFs_Library/sdcard.c **** /*-----------------------------------------------------------------------*/
 195:..\..\..\..\PSoC_FatFs-master\PSoC_FatFs_Library/sdcard.c **** 
 196:..\..\..\..\PSoC_FatFs-master\PSoC_FatFs_Library/sdcard.c **** static int wait_ready(void)	/* 1:OK, 0:Timeout */
 197:..\..\..\..\PSoC_FatFs-master\PSoC_FatFs_Library/sdcard.c **** {
 151              		.loc 1 197 0
 152              		.cfi_startproc
 153              		@ args = 0, pretend = 0, frame = 8
 154              		@ frame_needed = 0, uses_anonymous_args = 0
 155 0000 10B5     		push	{r4, lr}
 156              		.cfi_def_cfa_offset 8
 157              		.cfi_offset 4, -8
 158              		.cfi_offset 14, -4
 159 0002 82B0     		sub	sp, sp, #8
 160              		.cfi_def_cfa_offset 16
 161              	.LVL19:
 198:..\..\..\..\PSoC_FatFs-master\PSoC_FatFs_Library/sdcard.c **** 	BYTE d;
 199:..\..\..\..\PSoC_FatFs-master\PSoC_FatFs_Library/sdcard.c **** 	UINT tmr;
 200:..\..\..\..\PSoC_FatFs-master\PSoC_FatFs_Library/sdcard.c **** 
 201:..\..\..\..\PSoC_FatFs-master\PSoC_FatFs_Library/sdcard.c **** 	for (tmr = 5000; tmr; tmr--) {	/* Wait for ready in timeout of 500ms */
 162              		.loc 1 201 0
 163 0004 41F28834 		movw	r4, #5000
 164 0008 0CE0     		b	.L12
 165              	.LVL20:
 166              	.L14:
 202:..\..\..\..\PSoC_FatFs-master\PSoC_FatFs_Library/sdcard.c **** 		rcvr_mmc(&d, 1);
 167              		.loc 1 202 0
 168 000a 0121     		movs	r1, #1
 169 000c 0DF10700 		add	r0, sp, #7
 170 0010 FFF7FEFF 		bl	rcvr_mmc
 171              	.LVL21:
 203:..\..\..\..\PSoC_FatFs-master\PSoC_FatFs_Library/sdcard.c **** 		if (d == 0xFF) break;
 172              		.loc 1 203 0
 173 0014 9DF80730 		ldrb	r3, [sp, #7]	@ zero_extendqisi2
 174 0018 FF2B     		cmp	r3, #255
 175 001a 05D0     		beq	.L13
 204:..\..\..\..\PSoC_FatFs-master\PSoC_FatFs_Library/sdcard.c **** 		dly_us(100);
 176              		.loc 1 204 0 discriminator 2
 177 001c 6420     		movs	r0, #100
 178 001e FFF7FEFF 		bl	CyDelayUs
 179              	.LVL22:
 201:..\..\..\..\PSoC_FatFs-master\PSoC_FatFs_Library/sdcard.c **** 		rcvr_mmc(&d, 1);
 180              		.loc 1 201 0 discriminator 2
 181 0022 013C     		subs	r4, r4, #1
 182              	.LVL23:
 183              	.L12:
 201:..\..\..\..\PSoC_FatFs-master\PSoC_FatFs_Library/sdcard.c **** 		rcvr_mmc(&d, 1);
 184              		.loc 1 201 0 is_stmt 0 discriminator 1
 185 0024 002C     		cmp	r4, #0
 186 0026 F0D1     		bne	.L14
 187              	.L13:
 205:..\..\..\..\PSoC_FatFs-master\PSoC_FatFs_Library/sdcard.c **** 	}
ARM GAS  C:\Users\wa2n8\AppData\Local\Temp\ccQjiidk.s 			page 8


 206:..\..\..\..\PSoC_FatFs-master\PSoC_FatFs_Library/sdcard.c **** 
 207:..\..\..\..\PSoC_FatFs-master\PSoC_FatFs_Library/sdcard.c **** 	return tmr ? 1 : 0;
 208:..\..\..\..\PSoC_FatFs-master\PSoC_FatFs_Library/sdcard.c **** }
 188              		.loc 1 208 0 is_stmt 1
 189 0028 201C     		adds	r0, r4, #0
 190 002a 18BF     		it	ne
 191 002c 0120     		movne	r0, #1
 192 002e 02B0     		add	sp, sp, #8
 193              		.cfi_def_cfa_offset 8
 194              		@ sp needed
 195 0030 10BD     		pop	{r4, pc}
 196              		.cfi_endproc
 197              	.LFE65:
 198              		.size	wait_ready, .-wait_ready
 199 0032 00BF     		.section	.text.rcvr_datablock,"ax",%progbits
 200              		.align	2
 201              		.thumb
 202              		.thumb_func
 203              		.type	rcvr_datablock, %function
 204              	rcvr_datablock:
 205              	.LFB68:
 209:..\..\..\..\PSoC_FatFs-master\PSoC_FatFs_Library/sdcard.c **** 
 210:..\..\..\..\PSoC_FatFs-master\PSoC_FatFs_Library/sdcard.c **** /*-----------------------------------------------------------------------*/
 211:..\..\..\..\PSoC_FatFs-master\PSoC_FatFs_Library/sdcard.c **** /* Deselect the card and release SPI bus                                 */
 212:..\..\..\..\PSoC_FatFs-master\PSoC_FatFs_Library/sdcard.c **** /*-----------------------------------------------------------------------*/
 213:..\..\..\..\PSoC_FatFs-master\PSoC_FatFs_Library/sdcard.c **** 
 214:..\..\..\..\PSoC_FatFs-master\PSoC_FatFs_Library/sdcard.c **** static void deselect(void)
 215:..\..\..\..\PSoC_FatFs-master\PSoC_FatFs_Library/sdcard.c **** {
 216:..\..\..\..\PSoC_FatFs-master\PSoC_FatFs_Library/sdcard.c **** 	BYTE d;
 217:..\..\..\..\PSoC_FatFs-master\PSoC_FatFs_Library/sdcard.c **** 
 218:..\..\..\..\PSoC_FatFs-master\PSoC_FatFs_Library/sdcard.c ****     mmSPI_SS_Write(1);
 219:..\..\..\..\PSoC_FatFs-master\PSoC_FatFs_Library/sdcard.c ****     CyDelayUs(CS_DELAY_US); // <*> adjust
 220:..\..\..\..\PSoC_FatFs-master\PSoC_FatFs_Library/sdcard.c **** 	rcvr_mmc(&d, 1);	/* Dummy clock (force DO hi-z for multiple slave SPI) */
 221:..\..\..\..\PSoC_FatFs-master\PSoC_FatFs_Library/sdcard.c **** }
 222:..\..\..\..\PSoC_FatFs-master\PSoC_FatFs_Library/sdcard.c **** 
 223:..\..\..\..\PSoC_FatFs-master\PSoC_FatFs_Library/sdcard.c **** /*-----------------------------------------------------------------------*/
 224:..\..\..\..\PSoC_FatFs-master\PSoC_FatFs_Library/sdcard.c **** /* Select the card and wait for ready                                    */
 225:..\..\..\..\PSoC_FatFs-master\PSoC_FatFs_Library/sdcard.c **** /*-----------------------------------------------------------------------*/
 226:..\..\..\..\PSoC_FatFs-master\PSoC_FatFs_Library/sdcard.c **** 
 227:..\..\..\..\PSoC_FatFs-master\PSoC_FatFs_Library/sdcard.c **** static int select(void)	/* 1:OK, 0:Timeout */
 228:..\..\..\..\PSoC_FatFs-master\PSoC_FatFs_Library/sdcard.c **** {
 229:..\..\..\..\PSoC_FatFs-master\PSoC_FatFs_Library/sdcard.c **** 	BYTE d;
 230:..\..\..\..\PSoC_FatFs-master\PSoC_FatFs_Library/sdcard.c **** 
 231:..\..\..\..\PSoC_FatFs-master\PSoC_FatFs_Library/sdcard.c ****     mmSPI_SS_Write(0);
 232:..\..\..\..\PSoC_FatFs-master\PSoC_FatFs_Library/sdcard.c ****     CyDelayUs(CS_DELAY_US); // <*> adjust
 233:..\..\..\..\PSoC_FatFs-master\PSoC_FatFs_Library/sdcard.c **** 	rcvr_mmc(&d, 1);	/* Dummy clock (force DO enabled) */
 234:..\..\..\..\PSoC_FatFs-master\PSoC_FatFs_Library/sdcard.c **** 	if (wait_ready()) return 1;	/* Wait for card ready */
 235:..\..\..\..\PSoC_FatFs-master\PSoC_FatFs_Library/sdcard.c **** 
 236:..\..\..\..\PSoC_FatFs-master\PSoC_FatFs_Library/sdcard.c **** 	deselect();
 237:..\..\..\..\PSoC_FatFs-master\PSoC_FatFs_Library/sdcard.c **** 	return 0;			/* Failed */
 238:..\..\..\..\PSoC_FatFs-master\PSoC_FatFs_Library/sdcard.c **** }
 239:..\..\..\..\PSoC_FatFs-master\PSoC_FatFs_Library/sdcard.c **** 
 240:..\..\..\..\PSoC_FatFs-master\PSoC_FatFs_Library/sdcard.c **** /*-----------------------------------------------------------------------*/
 241:..\..\..\..\PSoC_FatFs-master\PSoC_FatFs_Library/sdcard.c **** /* Receive a data packet from the card                                   */
 242:..\..\..\..\PSoC_FatFs-master\PSoC_FatFs_Library/sdcard.c **** /*-----------------------------------------------------------------------*/
 243:..\..\..\..\PSoC_FatFs-master\PSoC_FatFs_Library/sdcard.c **** 
 244:..\..\..\..\PSoC_FatFs-master\PSoC_FatFs_Library/sdcard.c **** static int rcvr_datablock(BYTE *buff, UINT btr) 	/* 1:OK, 0:Failed */
ARM GAS  C:\Users\wa2n8\AppData\Local\Temp\ccQjiidk.s 			page 9


 245:..\..\..\..\PSoC_FatFs-master\PSoC_FatFs_Library/sdcard.c **** {
 206              		.loc 1 245 0
 207              		.cfi_startproc
 208              		@ args = 0, pretend = 0, frame = 8
 209              		@ frame_needed = 0, uses_anonymous_args = 0
 210              	.LVL24:
 211 0000 70B5     		push	{r4, r5, r6, lr}
 212              		.cfi_def_cfa_offset 16
 213              		.cfi_offset 4, -16
 214              		.cfi_offset 5, -12
 215              		.cfi_offset 6, -8
 216              		.cfi_offset 14, -4
 217 0002 82B0     		sub	sp, sp, #8
 218              		.cfi_def_cfa_offset 24
 219 0004 0546     		mov	r5, r0
 220 0006 0E46     		mov	r6, r1
 221              	.LVL25:
 246:..\..\..\..\PSoC_FatFs-master\PSoC_FatFs_Library/sdcard.c **** 	BYTE d[2];
 247:..\..\..\..\PSoC_FatFs-master\PSoC_FatFs_Library/sdcard.c **** 	UINT tmr;
 248:..\..\..\..\PSoC_FatFs-master\PSoC_FatFs_Library/sdcard.c **** 
 249:..\..\..\..\PSoC_FatFs-master\PSoC_FatFs_Library/sdcard.c **** 	for (tmr = 1000; tmr; tmr--) {	/* Wait for data packet in timeout of 100ms */
 222              		.loc 1 249 0
 223 0008 4FF47A74 		mov	r4, #1000
 224 000c 0BE0     		b	.L17
 225              	.LVL26:
 226              	.L19:
 250:..\..\..\..\PSoC_FatFs-master\PSoC_FatFs_Library/sdcard.c **** 		rcvr_mmc(d, 1);
 227              		.loc 1 250 0
 228 000e 0121     		movs	r1, #1
 229 0010 01A8     		add	r0, sp, #4
 230 0012 FFF7FEFF 		bl	rcvr_mmc
 231              	.LVL27:
 251:..\..\..\..\PSoC_FatFs-master\PSoC_FatFs_Library/sdcard.c **** 		if (d[0] != 0xFF) break;
 232              		.loc 1 251 0
 233 0016 9DF80430 		ldrb	r3, [sp, #4]	@ zero_extendqisi2
 234 001a FF2B     		cmp	r3, #255
 235 001c 05D1     		bne	.L18
 252:..\..\..\..\PSoC_FatFs-master\PSoC_FatFs_Library/sdcard.c **** 		dly_us(100);
 236              		.loc 1 252 0 discriminator 2
 237 001e 6420     		movs	r0, #100
 238 0020 FFF7FEFF 		bl	CyDelayUs
 239              	.LVL28:
 249:..\..\..\..\PSoC_FatFs-master\PSoC_FatFs_Library/sdcard.c **** 		rcvr_mmc(d, 1);
 240              		.loc 1 249 0 discriminator 2
 241 0024 013C     		subs	r4, r4, #1
 242              	.LVL29:
 243              	.L17:
 249:..\..\..\..\PSoC_FatFs-master\PSoC_FatFs_Library/sdcard.c **** 		rcvr_mmc(d, 1);
 244              		.loc 1 249 0 is_stmt 0 discriminator 1
 245 0026 002C     		cmp	r4, #0
 246 0028 F1D1     		bne	.L19
 247              	.L18:
 253:..\..\..\..\PSoC_FatFs-master\PSoC_FatFs_Library/sdcard.c **** 	}
 254:..\..\..\..\PSoC_FatFs-master\PSoC_FatFs_Library/sdcard.c **** 	if (d[0] != 0xFE) return 0;		/* If not valid data token, return with error */
 248              		.loc 1 254 0 is_stmt 1
 249 002a 9DF80430 		ldrb	r3, [sp, #4]	@ zero_extendqisi2
 250 002e FE2B     		cmp	r3, #254
ARM GAS  C:\Users\wa2n8\AppData\Local\Temp\ccQjiidk.s 			page 10


 251 0030 09D1     		bne	.L21
 255:..\..\..\..\PSoC_FatFs-master\PSoC_FatFs_Library/sdcard.c **** 
 256:..\..\..\..\PSoC_FatFs-master\PSoC_FatFs_Library/sdcard.c **** 	rcvr_mmc(buff, btr);			/* Receive the data block into buffer */
 252              		.loc 1 256 0
 253 0032 3146     		mov	r1, r6
 254 0034 2846     		mov	r0, r5
 255 0036 FFF7FEFF 		bl	rcvr_mmc
 256              	.LVL30:
 257:..\..\..\..\PSoC_FatFs-master\PSoC_FatFs_Library/sdcard.c **** 	rcvr_mmc(d, 2);					/* Discard CRC */
 257              		.loc 1 257 0
 258 003a 0221     		movs	r1, #2
 259 003c 01A8     		add	r0, sp, #4
 260 003e FFF7FEFF 		bl	rcvr_mmc
 261              	.LVL31:
 258:..\..\..\..\PSoC_FatFs-master\PSoC_FatFs_Library/sdcard.c **** 
 259:..\..\..\..\PSoC_FatFs-master\PSoC_FatFs_Library/sdcard.c **** 	return 1;						/* Return with success */
 262              		.loc 1 259 0
 263 0042 0120     		movs	r0, #1
 264 0044 00E0     		b	.L20
 265              	.L21:
 254:..\..\..\..\PSoC_FatFs-master\PSoC_FatFs_Library/sdcard.c **** 
 266              		.loc 1 254 0
 267 0046 0020     		movs	r0, #0
 268              	.L20:
 260:..\..\..\..\PSoC_FatFs-master\PSoC_FatFs_Library/sdcard.c **** }
 269              		.loc 1 260 0
 270 0048 02B0     		add	sp, sp, #8
 271              		.cfi_def_cfa_offset 16
 272              		@ sp needed
 273 004a 70BD     		pop	{r4, r5, r6, pc}
 274              		.cfi_endproc
 275              	.LFE68:
 276              		.size	rcvr_datablock, .-rcvr_datablock
 277              		.section	.text.xmit_datablock,"ax",%progbits
 278              		.align	2
 279              		.thumb
 280              		.thumb_func
 281              		.type	xmit_datablock, %function
 282              	xmit_datablock:
 283              	.LFB69:
 261:..\..\..\..\PSoC_FatFs-master\PSoC_FatFs_Library/sdcard.c **** 
 262:..\..\..\..\PSoC_FatFs-master\PSoC_FatFs_Library/sdcard.c **** /*-----------------------------------------------------------------------*/
 263:..\..\..\..\PSoC_FatFs-master\PSoC_FatFs_Library/sdcard.c **** /* Send a data packet to the card                                        */
 264:..\..\..\..\PSoC_FatFs-master\PSoC_FatFs_Library/sdcard.c **** /*-----------------------------------------------------------------------*/
 265:..\..\..\..\PSoC_FatFs-master\PSoC_FatFs_Library/sdcard.c **** 
 266:..\..\..\..\PSoC_FatFs-master\PSoC_FatFs_Library/sdcard.c **** static int xmit_datablock(const BYTE *buff, BYTE token)	/* 1:OK, 0:Failed */
 267:..\..\..\..\PSoC_FatFs-master\PSoC_FatFs_Library/sdcard.c **** {
 284              		.loc 1 267 0
 285              		.cfi_startproc
 286              		@ args = 0, pretend = 0, frame = 8
 287              		@ frame_needed = 0, uses_anonymous_args = 0
 288              	.LVL32:
 289 0000 30B5     		push	{r4, r5, lr}
 290              		.cfi_def_cfa_offset 12
 291              		.cfi_offset 4, -12
 292              		.cfi_offset 5, -8
 293              		.cfi_offset 14, -4
ARM GAS  C:\Users\wa2n8\AppData\Local\Temp\ccQjiidk.s 			page 11


 294 0002 83B0     		sub	sp, sp, #12
 295              		.cfi_def_cfa_offset 24
 296 0004 0546     		mov	r5, r0
 297 0006 0C46     		mov	r4, r1
 268:..\..\..\..\PSoC_FatFs-master\PSoC_FatFs_Library/sdcard.c **** 	BYTE d[2];
 269:..\..\..\..\PSoC_FatFs-master\PSoC_FatFs_Library/sdcard.c **** 
 270:..\..\..\..\PSoC_FatFs-master\PSoC_FatFs_Library/sdcard.c **** 	if (!wait_ready()) return 0;
 298              		.loc 1 270 0
 299 0008 FFF7FEFF 		bl	wait_ready
 300              	.LVL33:
 301 000c 0346     		mov	r3, r0
 302 000e 28B3     		cbz	r0, .L24
 271:..\..\..\..\PSoC_FatFs-master\PSoC_FatFs_Library/sdcard.c **** 
 272:..\..\..\..\PSoC_FatFs-master\PSoC_FatFs_Library/sdcard.c **** 	d[0] = token;
 303              		.loc 1 272 0
 304 0010 02A8     		add	r0, sp, #8
 305 0012 00F8044D 		strb	r4, [r0, #-4]!
 273:..\..\..\..\PSoC_FatFs-master\PSoC_FatFs_Library/sdcard.c **** 	xmit_mmc(d, 1);				/* Xmit a token */
 306              		.loc 1 273 0
 307 0016 0121     		movs	r1, #1
 308 0018 FFF7FEFF 		bl	xmit_mmc
 309              	.LVL34:
 274:..\..\..\..\PSoC_FatFs-master\PSoC_FatFs_Library/sdcard.c ****     CyDelayUs(M_DELAY_US); // <*> why?
 310              		.loc 1 274 0
 311 001c 6420     		movs	r0, #100
 312 001e FFF7FEFF 		bl	CyDelayUs
 313              	.LVL35:
 275:..\..\..\..\PSoC_FatFs-master\PSoC_FatFs_Library/sdcard.c **** 	if (token != 0xFD) {		/* Is it data token? */
 314              		.loc 1 275 0
 315 0022 FD2C     		cmp	r4, #253
 316 0024 17D0     		beq	.L25
 276:..\..\..\..\PSoC_FatFs-master\PSoC_FatFs_Library/sdcard.c **** 		xmit_mmc(buff, 512);	/* Xmit the 512 byte data block to MMC */
 317              		.loc 1 276 0
 318 0026 4FF40071 		mov	r1, #512
 319 002a 2846     		mov	r0, r5
 320 002c FFF7FEFF 		bl	xmit_mmc
 321              	.LVL36:
 277:..\..\..\..\PSoC_FatFs-master\PSoC_FatFs_Library/sdcard.c ****         CyDelayUs(M_DELAY_US); // <*> why?
 322              		.loc 1 277 0
 323 0030 6420     		movs	r0, #100
 324 0032 FFF7FEFF 		bl	CyDelayUs
 325              	.LVL37:
 278:..\..\..\..\PSoC_FatFs-master\PSoC_FatFs_Library/sdcard.c **** 		rcvr_mmc(d, 2);			/* Xmit dummy CRC (0xFF,0xFF) */
 326              		.loc 1 278 0
 327 0036 0221     		movs	r1, #2
 328 0038 01A8     		add	r0, sp, #4
 329 003a FFF7FEFF 		bl	rcvr_mmc
 330              	.LVL38:
 279:..\..\..\..\PSoC_FatFs-master\PSoC_FatFs_Library/sdcard.c **** 		rcvr_mmc(d, 1);			/* Receive data response */
 331              		.loc 1 279 0
 332 003e 0121     		movs	r1, #1
 333 0040 01A8     		add	r0, sp, #4
 334 0042 FFF7FEFF 		bl	rcvr_mmc
 335              	.LVL39:
 280:..\..\..\..\PSoC_FatFs-master\PSoC_FatFs_Library/sdcard.c **** 		if ((d[0] & 0x1F) != 0x05)	/* If not accepted, return with error */
 336              		.loc 1 280 0
 337 0046 9DF80430 		ldrb	r3, [sp, #4]	@ zero_extendqisi2
ARM GAS  C:\Users\wa2n8\AppData\Local\Temp\ccQjiidk.s 			page 12


 338 004a 03F01F03 		and	r3, r3, #31
 339 004e 052B     		cmp	r3, #5
 340 0050 03D0     		beq	.L26
 281:..\..\..\..\PSoC_FatFs-master\PSoC_FatFs_Library/sdcard.c **** 			return 0;
 341              		.loc 1 281 0
 342 0052 0023     		movs	r3, #0
 343 0054 02E0     		b	.L24
 344              	.L25:
 282:..\..\..\..\PSoC_FatFs-master\PSoC_FatFs_Library/sdcard.c **** 	}
 283:..\..\..\..\PSoC_FatFs-master\PSoC_FatFs_Library/sdcard.c **** 
 284:..\..\..\..\PSoC_FatFs-master\PSoC_FatFs_Library/sdcard.c **** 	return 1;
 345              		.loc 1 284 0
 346 0056 0123     		movs	r3, #1
 347 0058 00E0     		b	.L24
 348              	.L26:
 349 005a 0123     		movs	r3, #1
 350              	.L24:
 285:..\..\..\..\PSoC_FatFs-master\PSoC_FatFs_Library/sdcard.c **** }
 351              		.loc 1 285 0
 352 005c 1846     		mov	r0, r3
 353 005e 03B0     		add	sp, sp, #12
 354              		.cfi_def_cfa_offset 12
 355              		@ sp needed
 356 0060 30BD     		pop	{r4, r5, pc}
 357              		.cfi_endproc
 358              	.LFE69:
 359              		.size	xmit_datablock, .-xmit_datablock
 360 0062 00BF     		.section	.text.deselect,"ax",%progbits
 361              		.align	2
 362              		.thumb
 363              		.thumb_func
 364              		.type	deselect, %function
 365              	deselect:
 366              	.LFB66:
 215:..\..\..\..\PSoC_FatFs-master\PSoC_FatFs_Library/sdcard.c **** 	BYTE d;
 367              		.loc 1 215 0
 368              		.cfi_startproc
 369              		@ args = 0, pretend = 0, frame = 8
 370              		@ frame_needed = 0, uses_anonymous_args = 0
 371 0000 00B5     		push	{lr}
 372              		.cfi_def_cfa_offset 4
 373              		.cfi_offset 14, -4
 374 0002 83B0     		sub	sp, sp, #12
 375              		.cfi_def_cfa_offset 16
 218:..\..\..\..\PSoC_FatFs-master\PSoC_FatFs_Library/sdcard.c ****     CyDelayUs(CS_DELAY_US); // <*> adjust
 376              		.loc 1 218 0
 377 0004 0120     		movs	r0, #1
 378 0006 FFF7FEFF 		bl	SPI_SS_Write
 379              	.LVL40:
 219:..\..\..\..\PSoC_FatFs-master\PSoC_FatFs_Library/sdcard.c **** 	rcvr_mmc(&d, 1);	/* Dummy clock (force DO hi-z for multiple slave SPI) */
 380              		.loc 1 219 0
 381 000a 0120     		movs	r0, #1
 382 000c FFF7FEFF 		bl	CyDelayUs
 383              	.LVL41:
 220:..\..\..\..\PSoC_FatFs-master\PSoC_FatFs_Library/sdcard.c **** }
 384              		.loc 1 220 0
 385 0010 0121     		movs	r1, #1
ARM GAS  C:\Users\wa2n8\AppData\Local\Temp\ccQjiidk.s 			page 13


 386 0012 0DF10700 		add	r0, sp, #7
 387 0016 FFF7FEFF 		bl	rcvr_mmc
 388              	.LVL42:
 221:..\..\..\..\PSoC_FatFs-master\PSoC_FatFs_Library/sdcard.c **** 
 389              		.loc 1 221 0
 390 001a 03B0     		add	sp, sp, #12
 391              		.cfi_def_cfa_offset 4
 392              		@ sp needed
 393 001c 5DF804FB 		ldr	pc, [sp], #4
 394              		.cfi_endproc
 395              	.LFE66:
 396              		.size	deselect, .-deselect
 397              		.section	.text.select,"ax",%progbits
 398              		.align	2
 399              		.thumb
 400              		.thumb_func
 401              		.type	select, %function
 402              	select:
 403              	.LFB67:
 228:..\..\..\..\PSoC_FatFs-master\PSoC_FatFs_Library/sdcard.c **** 	BYTE d;
 404              		.loc 1 228 0
 405              		.cfi_startproc
 406              		@ args = 0, pretend = 0, frame = 8
 407              		@ frame_needed = 0, uses_anonymous_args = 0
 408 0000 10B5     		push	{r4, lr}
 409              		.cfi_def_cfa_offset 8
 410              		.cfi_offset 4, -8
 411              		.cfi_offset 14, -4
 412 0002 82B0     		sub	sp, sp, #8
 413              		.cfi_def_cfa_offset 16
 231:..\..\..\..\PSoC_FatFs-master\PSoC_FatFs_Library/sdcard.c ****     CyDelayUs(CS_DELAY_US); // <*> adjust
 414              		.loc 1 231 0
 415 0004 0020     		movs	r0, #0
 416 0006 FFF7FEFF 		bl	SPI_SS_Write
 417              	.LVL43:
 232:..\..\..\..\PSoC_FatFs-master\PSoC_FatFs_Library/sdcard.c **** 	rcvr_mmc(&d, 1);	/* Dummy clock (force DO enabled) */
 418              		.loc 1 232 0
 419 000a 0120     		movs	r0, #1
 420 000c FFF7FEFF 		bl	CyDelayUs
 421              	.LVL44:
 233:..\..\..\..\PSoC_FatFs-master\PSoC_FatFs_Library/sdcard.c **** 	if (wait_ready()) return 1;	/* Wait for card ready */
 422              		.loc 1 233 0
 423 0010 0121     		movs	r1, #1
 424 0012 0DF10700 		add	r0, sp, #7
 425 0016 FFF7FEFF 		bl	rcvr_mmc
 426              	.LVL45:
 234:..\..\..\..\PSoC_FatFs-master\PSoC_FatFs_Library/sdcard.c **** 
 427              		.loc 1 234 0
 428 001a FFF7FEFF 		bl	wait_ready
 429              	.LVL46:
 430 001e 18B9     		cbnz	r0, .L32
 431 0020 0446     		mov	r4, r0
 236:..\..\..\..\PSoC_FatFs-master\PSoC_FatFs_Library/sdcard.c **** 	return 0;			/* Failed */
 432              		.loc 1 236 0
 433 0022 FFF7FEFF 		bl	deselect
 434              	.LVL47:
 237:..\..\..\..\PSoC_FatFs-master\PSoC_FatFs_Library/sdcard.c **** }
ARM GAS  C:\Users\wa2n8\AppData\Local\Temp\ccQjiidk.s 			page 14


 435              		.loc 1 237 0
 436 0026 00E0     		b	.L31
 437              	.L32:
 234:..\..\..\..\PSoC_FatFs-master\PSoC_FatFs_Library/sdcard.c **** 
 438              		.loc 1 234 0
 439 0028 0124     		movs	r4, #1
 440              	.L31:
 238:..\..\..\..\PSoC_FatFs-master\PSoC_FatFs_Library/sdcard.c **** 
 441              		.loc 1 238 0
 442 002a 2046     		mov	r0, r4
 443 002c 02B0     		add	sp, sp, #8
 444              		.cfi_def_cfa_offset 8
 445              		@ sp needed
 446 002e 10BD     		pop	{r4, pc}
 447              		.cfi_endproc
 448              	.LFE67:
 449              		.size	select, .-select
 450              		.section	.text.send_cmd,"ax",%progbits
 451              		.align	2
 452              		.thumb
 453              		.thumb_func
 454              		.type	send_cmd, %function
 455              	send_cmd:
 456              	.LFB70:
 286:..\..\..\..\PSoC_FatFs-master\PSoC_FatFs_Library/sdcard.c **** 
 287:..\..\..\..\PSoC_FatFs-master\PSoC_FatFs_Library/sdcard.c **** /*-----------------------------------------------------------------------*/
 288:..\..\..\..\PSoC_FatFs-master\PSoC_FatFs_Library/sdcard.c **** /* Send a command packet to the card                                     */
 289:..\..\..\..\PSoC_FatFs-master\PSoC_FatFs_Library/sdcard.c **** /*-----------------------------------------------------------------------*/
 290:..\..\..\..\PSoC_FatFs-master\PSoC_FatFs_Library/sdcard.c **** 
 291:..\..\..\..\PSoC_FatFs-master\PSoC_FatFs_Library/sdcard.c **** static BYTE send_cmd(BYTE cmd,	DWORD arg)		/* Returns command response (bit7==1:Send failed)*/
 292:..\..\..\..\PSoC_FatFs-master\PSoC_FatFs_Library/sdcard.c **** {
 457              		.loc 1 292 0
 458              		.cfi_startproc
 459              		@ args = 0, pretend = 0, frame = 8
 460              		@ frame_needed = 0, uses_anonymous_args = 0
 461              	.LVL48:
 462 0000 30B5     		push	{r4, r5, lr}
 463              		.cfi_def_cfa_offset 12
 464              		.cfi_offset 4, -12
 465              		.cfi_offset 5, -8
 466              		.cfi_offset 14, -4
 467 0002 83B0     		sub	sp, sp, #12
 468              		.cfi_def_cfa_offset 24
 469 0004 0446     		mov	r4, r0
 470 0006 0D46     		mov	r5, r1
 293:..\..\..\..\PSoC_FatFs-master\PSoC_FatFs_Library/sdcard.c **** 	BYTE n, d, buf[6];
 294:..\..\..\..\PSoC_FatFs-master\PSoC_FatFs_Library/sdcard.c **** 
 295:..\..\..\..\PSoC_FatFs-master\PSoC_FatFs_Library/sdcard.c **** 
 296:..\..\..\..\PSoC_FatFs-master\PSoC_FatFs_Library/sdcard.c **** 	if (cmd & 0x80) {	/* ACMD<n> is the command sequense of CMD55-CMD<n> */
 471              		.loc 1 296 0
 472 0008 10F0800F 		tst	r0, #128
 473 000c 07D0     		beq	.L35
 297:..\..\..\..\PSoC_FatFs-master\PSoC_FatFs_Library/sdcard.c **** 		cmd &= 0x7F;
 474              		.loc 1 297 0
 475 000e 00F07F04 		and	r4, r0, #127
 476              	.LVL49:
 298:..\..\..\..\PSoC_FatFs-master\PSoC_FatFs_Library/sdcard.c **** 		n = send_cmd(CMD55, 0);
ARM GAS  C:\Users\wa2n8\AppData\Local\Temp\ccQjiidk.s 			page 15


 477              		.loc 1 298 0
 478 0012 0021     		movs	r1, #0
 479              	.LVL50:
 480 0014 3720     		movs	r0, #55
 481 0016 FFF7F3FF 		bl	send_cmd
 482              	.LVL51:
 299:..\..\..\..\PSoC_FatFs-master\PSoC_FatFs_Library/sdcard.c **** 		if (n > 1) return n;
 483              		.loc 1 299 0
 484 001a 0128     		cmp	r0, #1
 485 001c 3FD8     		bhi	.L36
 486              	.LVL52:
 487              	.L35:
 300:..\..\..\..\PSoC_FatFs-master\PSoC_FatFs_Library/sdcard.c **** 	}
 301:..\..\..\..\PSoC_FatFs-master\PSoC_FatFs_Library/sdcard.c **** 
 302:..\..\..\..\PSoC_FatFs-master\PSoC_FatFs_Library/sdcard.c **** 	/* Select the card and wait for ready except to stop multiple block read */
 303:..\..\..\..\PSoC_FatFs-master\PSoC_FatFs_Library/sdcard.c **** 	if (cmd != CMD12) {
 488              		.loc 1 303 0
 489 001e 0C2C     		cmp	r4, #12
 490 0020 04D0     		beq	.L37
 304:..\..\..\..\PSoC_FatFs-master\PSoC_FatFs_Library/sdcard.c **** 		deselect();
 491              		.loc 1 304 0
 492 0022 FFF7FEFF 		bl	deselect
 493              	.LVL53:
 305:..\..\..\..\PSoC_FatFs-master\PSoC_FatFs_Library/sdcard.c **** 		if (!select()) return 0xFF;
 494              		.loc 1 305 0
 495 0026 FFF7FEFF 		bl	select
 496              	.LVL54:
 497 002a B8B3     		cbz	r0, .L43
 498              	.L37:
 306:..\..\..\..\PSoC_FatFs-master\PSoC_FatFs_Library/sdcard.c **** 	}
 307:..\..\..\..\PSoC_FatFs-master\PSoC_FatFs_Library/sdcard.c **** 
 308:..\..\..\..\PSoC_FatFs-master\PSoC_FatFs_Library/sdcard.c **** 	/* Send a command packet */
 309:..\..\..\..\PSoC_FatFs-master\PSoC_FatFs_Library/sdcard.c **** 	buf[0] = 0x40 | cmd;			/* Start + Command index */
 499              		.loc 1 309 0
 500 002c 44F04003 		orr	r3, r4, #64
 501 0030 8DF80030 		strb	r3, [sp]
 310:..\..\..\..\PSoC_FatFs-master\PSoC_FatFs_Library/sdcard.c **** 	buf[1] = (BYTE)(arg >> 24);		/* Argument[31..24] */
 502              		.loc 1 310 0
 503 0034 2B0E     		lsrs	r3, r5, #24
 504 0036 8DF80130 		strb	r3, [sp, #1]
 311:..\..\..\..\PSoC_FatFs-master\PSoC_FatFs_Library/sdcard.c **** 	buf[2] = (BYTE)(arg >> 16);		/* Argument[23..16] */
 505              		.loc 1 311 0
 506 003a C5F30743 		ubfx	r3, r5, #16, #8
 507 003e 8DF80230 		strb	r3, [sp, #2]
 312:..\..\..\..\PSoC_FatFs-master\PSoC_FatFs_Library/sdcard.c **** 	buf[3] = (BYTE)(arg >> 8);		/* Argument[15..8] */
 508              		.loc 1 312 0
 509 0042 C5F30723 		ubfx	r3, r5, #8, #8
 510 0046 8DF80330 		strb	r3, [sp, #3]
 313:..\..\..\..\PSoC_FatFs-master\PSoC_FatFs_Library/sdcard.c **** 	buf[4] = (BYTE)arg;				/* Argument[7..0] */
 511              		.loc 1 313 0
 512 004a 8DF80450 		strb	r5, [sp, #4]
 513              	.LVL55:
 314:..\..\..\..\PSoC_FatFs-master\PSoC_FatFs_Library/sdcard.c **** 	n = 0x01;						/* Dummy CRC + Stop */
 315:..\..\..\..\PSoC_FatFs-master\PSoC_FatFs_Library/sdcard.c **** 	if (cmd == CMD0) n = 0x95;		/* (valid CRC for CMD0(0)) */
 514              		.loc 1 315 0
 515 004e 0CB1     		cbz	r4, .L44
 314:..\..\..\..\PSoC_FatFs-master\PSoC_FatFs_Library/sdcard.c **** 	n = 0x01;						/* Dummy CRC + Stop */
ARM GAS  C:\Users\wa2n8\AppData\Local\Temp\ccQjiidk.s 			page 16


 516              		.loc 1 314 0
 517 0050 0123     		movs	r3, #1
 518 0052 00E0     		b	.L38
 519              	.L44:
 520              		.loc 1 315 0
 521 0054 9523     		movs	r3, #149
 522              	.L38:
 523              	.LVL56:
 316:..\..\..\..\PSoC_FatFs-master\PSoC_FatFs_Library/sdcard.c **** 	if (cmd == CMD8) n = 0x87;		/* (valid CRC for CMD8(0x1AA)) */
 524              		.loc 1 316 0
 525 0056 082C     		cmp	r4, #8
 526 0058 00D1     		bne	.L39
 527 005a 8723     		movs	r3, #135
 528              	.LVL57:
 529              	.L39:
 317:..\..\..\..\PSoC_FatFs-master\PSoC_FatFs_Library/sdcard.c **** 	buf[5] = n;
 530              		.loc 1 317 0
 531 005c 8DF80530 		strb	r3, [sp, #5]
 318:..\..\..\..\PSoC_FatFs-master\PSoC_FatFs_Library/sdcard.c **** 	xmit_mmc(buf, 6);
 532              		.loc 1 318 0
 533 0060 0621     		movs	r1, #6
 534 0062 6846     		mov	r0, sp
 535 0064 FFF7FEFF 		bl	xmit_mmc
 536              	.LVL58:
 319:..\..\..\..\PSoC_FatFs-master\PSoC_FatFs_Library/sdcard.c ****     CyDelayUs(M_DELAY_US); // <*> why?
 537              		.loc 1 319 0
 538 0068 6420     		movs	r0, #100
 539 006a FFF7FEFF 		bl	CyDelayUs
 540              	.LVL59:
 320:..\..\..\..\PSoC_FatFs-master\PSoC_FatFs_Library/sdcard.c **** 
 321:..\..\..\..\PSoC_FatFs-master\PSoC_FatFs_Library/sdcard.c **** 	/* Receive command response */
 322:..\..\..\..\PSoC_FatFs-master\PSoC_FatFs_Library/sdcard.c **** 	if (cmd == CMD12) rcvr_mmc(&d, 1);	/* Skip a stuff byte when stop reading */
 541              		.loc 1 322 0
 542 006e 0C2C     		cmp	r4, #12
 543 0070 04D1     		bne	.L40
 544              		.loc 1 322 0 is_stmt 0 discriminator 1
 545 0072 0121     		movs	r1, #1
 546 0074 0DF10700 		add	r0, sp, #7
 547 0078 FFF7FEFF 		bl	rcvr_mmc
 548              	.LVL60:
 549              	.L40:
 316:..\..\..\..\PSoC_FatFs-master\PSoC_FatFs_Library/sdcard.c **** 	buf[5] = n;
 550              		.loc 1 316 0 is_stmt 1 discriminator 2
 551 007c 1424     		movs	r4, #20
 552              	.LVL61:
 553              	.L41:
 323:..\..\..\..\PSoC_FatFs-master\PSoC_FatFs_Library/sdcard.c **** 	n = 20;								/* Wait for a valid response in timeout of 10 attempts */
 324:..\..\..\..\PSoC_FatFs-master\PSoC_FatFs_Library/sdcard.c **** 	do
 325:..\..\..\..\PSoC_FatFs-master\PSoC_FatFs_Library/sdcard.c ****     {
 326:..\..\..\..\PSoC_FatFs-master\PSoC_FatFs_Library/sdcard.c **** 		rcvr_mmc(&d, 1);
 554              		.loc 1 326 0 discriminator 2
 555 007e 0121     		movs	r1, #1
 556 0080 0DF10700 		add	r0, sp, #7
 557 0084 FFF7FEFF 		bl	rcvr_mmc
 558              	.LVL62:
 327:..\..\..\..\PSoC_FatFs-master\PSoC_FatFs_Library/sdcard.c ****     }
 328:..\..\..\..\PSoC_FatFs-master\PSoC_FatFs_Library/sdcard.c **** 	while ((d & 0x80) && --n);
ARM GAS  C:\Users\wa2n8\AppData\Local\Temp\ccQjiidk.s 			page 17


 559              		.loc 1 328 0 discriminator 2
 560 0088 9DF80700 		ldrb	r0, [sp, #7]	@ zero_extendqisi2
 561 008c 10F0800F 		tst	r0, #128
 562 0090 05D0     		beq	.L36
 563              		.loc 1 328 0 is_stmt 0 discriminator 1
 564 0092 631E     		subs	r3, r4, #1
 565              	.LVL63:
 566 0094 13F0FF04 		ands	r4, r3, #255
 567 0098 F1D1     		bne	.L41
 568 009a 00E0     		b	.L36
 569              	.LVL64:
 570              	.L43:
 305:..\..\..\..\PSoC_FatFs-master\PSoC_FatFs_Library/sdcard.c **** 	}
 571              		.loc 1 305 0 is_stmt 1
 572 009c FF20     		movs	r0, #255
 573              	.LVL65:
 574              	.L36:
 329:..\..\..\..\PSoC_FatFs-master\PSoC_FatFs_Library/sdcard.c **** 
 330:..\..\..\..\PSoC_FatFs-master\PSoC_FatFs_Library/sdcard.c **** 	return d;			/* Return with the response value */
 331:..\..\..\..\PSoC_FatFs-master\PSoC_FatFs_Library/sdcard.c **** }
 575              		.loc 1 331 0
 576 009e 03B0     		add	sp, sp, #12
 577              		.cfi_def_cfa_offset 12
 578              		@ sp needed
 579 00a0 30BD     		pop	{r4, r5, pc}
 580              		.cfi_endproc
 581              	.LFE70:
 582              		.size	send_cmd, .-send_cmd
 583 00a2 00BF     		.section	.text.disk_status,"ax",%progbits
 584              		.align	2
 585              		.global	disk_status
 586              		.thumb
 587              		.thumb_func
 588              		.type	disk_status, %function
 589              	disk_status:
 590              	.LFB71:
 332:..\..\..\..\PSoC_FatFs-master\PSoC_FatFs_Library/sdcard.c **** 
 333:..\..\..\..\PSoC_FatFs-master\PSoC_FatFs_Library/sdcard.c **** /*--------------------------------------------------------------------------
 334:..\..\..\..\PSoC_FatFs-master\PSoC_FatFs_Library/sdcard.c **** 
 335:..\..\..\..\PSoC_FatFs-master\PSoC_FatFs_Library/sdcard.c ****    Public Functions
 336:..\..\..\..\PSoC_FatFs-master\PSoC_FatFs_Library/sdcard.c **** 
 337:..\..\..\..\PSoC_FatFs-master\PSoC_FatFs_Library/sdcard.c **** ---------------------------------------------------------------------------*/
 338:..\..\..\..\PSoC_FatFs-master\PSoC_FatFs_Library/sdcard.c **** 
 339:..\..\..\..\PSoC_FatFs-master\PSoC_FatFs_Library/sdcard.c **** /*-----------------------------------------------------------------------*/
 340:..\..\..\..\PSoC_FatFs-master\PSoC_FatFs_Library/sdcard.c **** /* Get Disk Status                                                       */
 341:..\..\..\..\PSoC_FatFs-master\PSoC_FatFs_Library/sdcard.c **** /*-----------------------------------------------------------------------*/
 342:..\..\..\..\PSoC_FatFs-master\PSoC_FatFs_Library/sdcard.c **** 
 343:..\..\..\..\PSoC_FatFs-master\PSoC_FatFs_Library/sdcard.c **** DSTATUS disk_status(BYTE drv) /* Drive number (always 0) */
 344:..\..\..\..\PSoC_FatFs-master\PSoC_FatFs_Library/sdcard.c **** {
 591              		.loc 1 344 0
 592              		.cfi_startproc
 593              		@ args = 0, pretend = 0, frame = 0
 594              		@ frame_needed = 0, uses_anonymous_args = 0
 595              		@ link register save eliminated.
 596              	.LVL66:
 345:..\..\..\..\PSoC_FatFs-master\PSoC_FatFs_Library/sdcard.c **** 	if (drv) return STA_NOINIT;
 597              		.loc 1 345 0
ARM GAS  C:\Users\wa2n8\AppData\Local\Temp\ccQjiidk.s 			page 18


 598 0000 10B9     		cbnz	r0, .L49
 346:..\..\..\..\PSoC_FatFs-master\PSoC_FatFs_Library/sdcard.c **** 
 347:..\..\..\..\PSoC_FatFs-master\PSoC_FatFs_Library/sdcard.c **** 	return Stat;
 599              		.loc 1 347 0
 600 0002 024B     		ldr	r3, .L50
 601 0004 1878     		ldrb	r0, [r3]	@ zero_extendqisi2
 602              	.LVL67:
 603 0006 7047     		bx	lr
 604              	.LVL68:
 605              	.L49:
 345:..\..\..\..\PSoC_FatFs-master\PSoC_FatFs_Library/sdcard.c **** 	if (drv) return STA_NOINIT;
 606              		.loc 1 345 0
 607 0008 0120     		movs	r0, #1
 608              	.LVL69:
 348:..\..\..\..\PSoC_FatFs-master\PSoC_FatFs_Library/sdcard.c **** }
 609              		.loc 1 348 0
 610 000a 7047     		bx	lr
 611              	.L51:
 612              		.align	2
 613              	.L50:
 614 000c 00000000 		.word	.LANCHOR0
 615              		.cfi_endproc
 616              	.LFE71:
 617              		.size	disk_status, .-disk_status
 618              		.section	.text.disk_initialize,"ax",%progbits
 619              		.align	2
 620              		.global	disk_initialize
 621              		.thumb
 622              		.thumb_func
 623              		.type	disk_initialize, %function
 624              	disk_initialize:
 625              	.LFB72:
 349:..\..\..\..\PSoC_FatFs-master\PSoC_FatFs_Library/sdcard.c **** 
 350:..\..\..\..\PSoC_FatFs-master\PSoC_FatFs_Library/sdcard.c **** /*-----------------------------------------------------------------------*/
 351:..\..\..\..\PSoC_FatFs-master\PSoC_FatFs_Library/sdcard.c **** /* Initialize Disk Drive                                                 */
 352:..\..\..\..\PSoC_FatFs-master\PSoC_FatFs_Library/sdcard.c **** /*-----------------------------------------------------------------------*/
 353:..\..\..\..\PSoC_FatFs-master\PSoC_FatFs_Library/sdcard.c **** 
 354:..\..\..\..\PSoC_FatFs-master\PSoC_FatFs_Library/sdcard.c **** DSTATUS disk_initialize(BYTE drv) /* Physical drive nmuber (0) */
 355:..\..\..\..\PSoC_FatFs-master\PSoC_FatFs_Library/sdcard.c **** {
 626              		.loc 1 355 0
 627              		.cfi_startproc
 628              		@ args = 0, pretend = 0, frame = 8
 629              		@ frame_needed = 0, uses_anonymous_args = 0
 630              	.LVL70:
 356:..\..\..\..\PSoC_FatFs-master\PSoC_FatFs_Library/sdcard.c **** 	BYTE n, ty, cmd, buf[4];
 357:..\..\..\..\PSoC_FatFs-master\PSoC_FatFs_Library/sdcard.c **** 	UINT tmr;
 358:..\..\..\..\PSoC_FatFs-master\PSoC_FatFs_Library/sdcard.c **** 	DSTATUS s;
 359:..\..\..\..\PSoC_FatFs-master\PSoC_FatFs_Library/sdcard.c **** 
 360:..\..\..\..\PSoC_FatFs-master\PSoC_FatFs_Library/sdcard.c **** 	if (drv) return RES_NOTRDY;
 631              		.loc 1 360 0
 632 0000 0028     		cmp	r0, #0
 633 0002 40F08780 		bne	.L65
 355:..\..\..\..\PSoC_FatFs-master\PSoC_FatFs_Library/sdcard.c **** 	BYTE n, ty, cmd, buf[4];
 634              		.loc 1 355 0
 635 0006 70B5     		push	{r4, r5, r6, lr}
 636              		.cfi_def_cfa_offset 16
 637              		.cfi_offset 4, -16
ARM GAS  C:\Users\wa2n8\AppData\Local\Temp\ccQjiidk.s 			page 19


 638              		.cfi_offset 5, -12
 639              		.cfi_offset 6, -8
 640              		.cfi_offset 14, -4
 641 0008 82B0     		sub	sp, sp, #8
 642              		.cfi_def_cfa_offset 24
 361:..\..\..\..\PSoC_FatFs-master\PSoC_FatFs_Library/sdcard.c **** 
 362:..\..\..\..\PSoC_FatFs-master\PSoC_FatFs_Library/sdcard.c **** 	dly_us(10000);			/* 10ms */
 643              		.loc 1 362 0
 644 000a 42F21070 		movw	r0, #10000
 645              	.LVL71:
 646 000e FFF7FEFF 		bl	CyDelayUs
 647              	.LVL72:
 363:..\..\..\..\PSoC_FatFs-master\PSoC_FatFs_Library/sdcard.c **** 
 364:..\..\..\..\PSoC_FatFs-master\PSoC_FatFs_Library/sdcard.c **** 	for (n = 10; n; n--) rcvr_mmc(buf, 1);	/* Apply 80 dummy clocks and the card gets ready to receive
 648              		.loc 1 364 0
 649 0012 0A24     		movs	r4, #10
 650 0014 05E0     		b	.L54
 651              	.LVL73:
 652              	.L55:
 653              		.loc 1 364 0 is_stmt 0 discriminator 3
 654 0016 0121     		movs	r1, #1
 655 0018 01A8     		add	r0, sp, #4
 656 001a FFF7FEFF 		bl	rcvr_mmc
 657              	.LVL74:
 658 001e 013C     		subs	r4, r4, #1
 659              	.LVL75:
 660 0020 E4B2     		uxtb	r4, r4
 661              	.LVL76:
 662              	.L54:
 663              		.loc 1 364 0 discriminator 1
 664 0022 002C     		cmp	r4, #0
 665 0024 F7D1     		bne	.L55
 666              	.LVL77:
 365:..\..\..\..\PSoC_FatFs-master\PSoC_FatFs_Library/sdcard.c **** 
 366:..\..\..\..\PSoC_FatFs-master\PSoC_FatFs_Library/sdcard.c **** 	ty = 0;
 367:..\..\..\..\PSoC_FatFs-master\PSoC_FatFs_Library/sdcard.c **** 	if (send_cmd(CMD0, 0) == 1) {			/* Enter Idle state */
 667              		.loc 1 367 0 is_stmt 1
 668 0026 0021     		movs	r1, #0
 669 0028 0846     		mov	r0, r1
 670 002a FFF7FEFF 		bl	send_cmd
 671              	.LVL78:
 672 002e 0128     		cmp	r0, #1
 673 0030 58D1     		bne	.L66
 368:..\..\..\..\PSoC_FatFs-master\PSoC_FatFs_Library/sdcard.c **** 		if (send_cmd(CMD8, 0x1AA) == 1) {	/* SDv2? */
 674              		.loc 1 368 0
 675 0032 4FF4D571 		mov	r1, #426
 676 0036 0820     		movs	r0, #8
 677 0038 FFF7FEFF 		bl	send_cmd
 678              	.LVL79:
 679 003c 0128     		cmp	r0, #1
 680 003e 2FD1     		bne	.L57
 369:..\..\..\..\PSoC_FatFs-master\PSoC_FatFs_Library/sdcard.c **** 			rcvr_mmc(buf, 4);							/* Get trailing return value of R7 resp */
 681              		.loc 1 369 0
 682 0040 0421     		movs	r1, #4
 683 0042 0DEB0100 		add	r0, sp, r1
 684 0046 FFF7FEFF 		bl	rcvr_mmc
 685              	.LVL80:
ARM GAS  C:\Users\wa2n8\AppData\Local\Temp\ccQjiidk.s 			page 20


 370:..\..\..\..\PSoC_FatFs-master\PSoC_FatFs_Library/sdcard.c **** 			if (buf[2] == 0x01 && buf[3] == 0xAA) {		/* The card can work at vdd range of 2.7-3.6V */
 686              		.loc 1 370 0
 687 004a 9DF80630 		ldrb	r3, [sp, #6]	@ zero_extendqisi2
 688 004e 012B     		cmp	r3, #1
 689 0050 4AD1     		bne	.L67
 690              		.loc 1 370 0 is_stmt 0 discriminator 1
 691 0052 9DF80730 		ldrb	r3, [sp, #7]	@ zero_extendqisi2
 692 0056 AA2B     		cmp	r3, #170
 693 0058 0CD0     		beq	.L68
 694 005a 50E0     		b	.L56
 695              	.LVL81:
 696              	.L60:
 371:..\..\..\..\PSoC_FatFs-master\PSoC_FatFs_Library/sdcard.c **** 				for (tmr = 1000; tmr; tmr--) {			/* Wait for leaving idle state (ACMD41 with HCS bit) */
 372:..\..\..\..\PSoC_FatFs-master\PSoC_FatFs_Library/sdcard.c **** 					if (send_cmd(ACMD41, 1UL << 30) == 0) break;
 697              		.loc 1 372 0 is_stmt 1
 698 005c 4FF08041 		mov	r1, #1073741824
 699 0060 A920     		movs	r0, #169
 700 0062 FFF7FEFF 		bl	send_cmd
 701              	.LVL82:
 702 0066 48B1     		cbz	r0, .L59
 373:..\..\..\..\PSoC_FatFs-master\PSoC_FatFs_Library/sdcard.c **** 					dly_us(1000);
 703              		.loc 1 373 0 discriminator 2
 704 0068 4FF47A70 		mov	r0, #1000
 705 006c FFF7FEFF 		bl	CyDelayUs
 706              	.LVL83:
 371:..\..\..\..\PSoC_FatFs-master\PSoC_FatFs_Library/sdcard.c **** 				for (tmr = 1000; tmr; tmr--) {			/* Wait for leaving idle state (ACMD41 with HCS bit) */
 707              		.loc 1 371 0 discriminator 2
 708 0070 013C     		subs	r4, r4, #1
 709              	.LVL84:
 710 0072 01E0     		b	.L58
 711              	.LVL85:
 712              	.L68:
 713 0074 4FF47A74 		mov	r4, #1000
 714              	.LVL86:
 715              	.L58:
 371:..\..\..\..\PSoC_FatFs-master\PSoC_FatFs_Library/sdcard.c **** 				for (tmr = 1000; tmr; tmr--) {			/* Wait for leaving idle state (ACMD41 with HCS bit) */
 716              		.loc 1 371 0 is_stmt 0 discriminator 1
 717 0078 002C     		cmp	r4, #0
 718 007a EFD1     		bne	.L60
 719              	.L59:
 374:..\..\..\..\PSoC_FatFs-master\PSoC_FatFs_Library/sdcard.c **** 				}
 375:..\..\..\..\PSoC_FatFs-master\PSoC_FatFs_Library/sdcard.c **** 				if (tmr && send_cmd(CMD58, 0) == 0) {	/* Check CCS bit in the OCR */
 720              		.loc 1 375 0 is_stmt 1
 721 007c B4B3     		cbz	r4, .L69
 722              		.loc 1 375 0 is_stmt 0 discriminator 1
 723 007e 0021     		movs	r1, #0
 724 0080 3A20     		movs	r0, #58
 725 0082 FFF7FEFF 		bl	send_cmd
 726              	.LVL87:
 727 0086 98BB     		cbnz	r0, .L70
 376:..\..\..\..\PSoC_FatFs-master\PSoC_FatFs_Library/sdcard.c **** 					rcvr_mmc(buf, 4);
 728              		.loc 1 376 0 is_stmt 1
 729 0088 0421     		movs	r1, #4
 730 008a 0DEB0100 		add	r0, sp, r1
 731 008e FFF7FEFF 		bl	rcvr_mmc
 732              	.LVL88:
 377:..\..\..\..\PSoC_FatFs-master\PSoC_FatFs_Library/sdcard.c **** 					ty = (buf[0] & 0x40) ? CT_SD2 | CT_BLOCK : CT_SD2;	/* SDv2 */
ARM GAS  C:\Users\wa2n8\AppData\Local\Temp\ccQjiidk.s 			page 21


 733              		.loc 1 377 0
 734 0092 9DF80430 		ldrb	r3, [sp, #4]	@ zero_extendqisi2
 735 0096 13F0400F 		tst	r3, #64
 736 009a 2BD0     		beq	.L71
 737 009c 0C24     		movs	r4, #12
 738              	.LVL89:
 739 009e 2EE0     		b	.L56
 740              	.LVL90:
 741              	.L57:
 378:..\..\..\..\PSoC_FatFs-master\PSoC_FatFs_Library/sdcard.c **** 				}
 379:..\..\..\..\PSoC_FatFs-master\PSoC_FatFs_Library/sdcard.c **** 			}
 380:..\..\..\..\PSoC_FatFs-master\PSoC_FatFs_Library/sdcard.c **** 		} else {							/* SDv1 or MMCv3 */
 381:..\..\..\..\PSoC_FatFs-master\PSoC_FatFs_Library/sdcard.c **** 			if (send_cmd(ACMD41, 0) <= 1) 	{
 742              		.loc 1 381 0
 743 00a0 0021     		movs	r1, #0
 744 00a2 A920     		movs	r0, #169
 745 00a4 FFF7FEFF 		bl	send_cmd
 746              	.LVL91:
 747 00a8 0128     		cmp	r0, #1
 748 00aa 02D8     		bhi	.L72
 382:..\..\..\..\PSoC_FatFs-master\PSoC_FatFs_Library/sdcard.c **** 				ty = CT_SD1; cmd = ACMD41;	/* SDv1 */
 749              		.loc 1 382 0
 750 00ac A926     		movs	r6, #169
 751 00ae 0224     		movs	r4, #2
 752              	.LVL92:
 753 00b0 01E0     		b	.L61
 754              	.LVL93:
 755              	.L72:
 383:..\..\..\..\PSoC_FatFs-master\PSoC_FatFs_Library/sdcard.c **** 			} else {
 384:..\..\..\..\PSoC_FatFs-master\PSoC_FatFs_Library/sdcard.c **** 				ty = CT_MMC; cmd = CMD1;	/* MMCv3 */
 756              		.loc 1 384 0
 757 00b2 0126     		movs	r6, #1
 758 00b4 3446     		mov	r4, r6
 759              	.LVL94:
 760              	.L61:
 385:..\..\..\..\PSoC_FatFs-master\PSoC_FatFs_Library/sdcard.c **** 			}
 386:..\..\..\..\PSoC_FatFs-master\PSoC_FatFs_Library/sdcard.c **** 			for (tmr = 1000; tmr; tmr--) {			/* Wait for leaving idle state */
 761              		.loc 1 386 0
 762 00b6 4FF47A75 		mov	r5, #1000
 763 00ba 09E0     		b	.L62
 764              	.LVL95:
 765              	.L64:
 387:..\..\..\..\PSoC_FatFs-master\PSoC_FatFs_Library/sdcard.c **** 				if (send_cmd(cmd, 0) == 0) break;
 766              		.loc 1 387 0
 767 00bc 0021     		movs	r1, #0
 768 00be 3046     		mov	r0, r6
 769 00c0 FFF7FEFF 		bl	send_cmd
 770              	.LVL96:
 771 00c4 30B1     		cbz	r0, .L63
 388:..\..\..\..\PSoC_FatFs-master\PSoC_FatFs_Library/sdcard.c **** 				dly_us(1000);
 772              		.loc 1 388 0 discriminator 2
 773 00c6 4FF47A70 		mov	r0, #1000
 774 00ca FFF7FEFF 		bl	CyDelayUs
 775              	.LVL97:
 386:..\..\..\..\PSoC_FatFs-master\PSoC_FatFs_Library/sdcard.c **** 				if (send_cmd(cmd, 0) == 0) break;
 776              		.loc 1 386 0 discriminator 2
 777 00ce 013D     		subs	r5, r5, #1
ARM GAS  C:\Users\wa2n8\AppData\Local\Temp\ccQjiidk.s 			page 22


 778              	.LVL98:
 779              	.L62:
 386:..\..\..\..\PSoC_FatFs-master\PSoC_FatFs_Library/sdcard.c **** 				if (send_cmd(cmd, 0) == 0) break;
 780              		.loc 1 386 0 is_stmt 0 discriminator 1
 781 00d0 002D     		cmp	r5, #0
 782 00d2 F3D1     		bne	.L64
 783              	.L63:
 389:..\..\..\..\PSoC_FatFs-master\PSoC_FatFs_Library/sdcard.c **** 			}
 390:..\..\..\..\PSoC_FatFs-master\PSoC_FatFs_Library/sdcard.c **** 			if (!tmr || send_cmd(CMD16, 512) != 0)	/* Set R/W block length to 512 */
 784              		.loc 1 390 0 is_stmt 1
 785 00d4 85B1     		cbz	r5, .L73
 786              		.loc 1 390 0 is_stmt 0 discriminator 1
 787 00d6 4FF40071 		mov	r1, #512
 788 00da 1020     		movs	r0, #16
 789 00dc FFF7FEFF 		bl	send_cmd
 790              	.LVL99:
 791 00e0 60B9     		cbnz	r0, .L74
 792 00e2 0CE0     		b	.L56
 793              	.LVL100:
 794              	.L66:
 366:..\..\..\..\PSoC_FatFs-master\PSoC_FatFs_Library/sdcard.c **** 	if (send_cmd(CMD0, 0) == 1) {			/* Enter Idle state */
 795              		.loc 1 366 0 is_stmt 1
 796 00e4 0024     		movs	r4, #0
 797              	.LVL101:
 798 00e6 0AE0     		b	.L56
 799              	.LVL102:
 800              	.L67:
 801 00e8 0024     		movs	r4, #0
 802              	.LVL103:
 803 00ea 08E0     		b	.L56
 804              	.LVL104:
 805              	.L69:
 806 00ec 0024     		movs	r4, #0
 807              	.LVL105:
 808 00ee 06E0     		b	.L56
 809              	.LVL106:
 810              	.L70:
 811 00f0 0024     		movs	r4, #0
 812              	.LVL107:
 813 00f2 04E0     		b	.L56
 814              	.LVL108:
 815              	.L71:
 377:..\..\..\..\PSoC_FatFs-master\PSoC_FatFs_Library/sdcard.c **** 				}
 816              		.loc 1 377 0
 817 00f4 0424     		movs	r4, #4
 818              	.LVL109:
 819 00f6 02E0     		b	.L56
 820              	.LVL110:
 821              	.L73:
 391:..\..\..\..\PSoC_FatFs-master\PSoC_FatFs_Library/sdcard.c **** 				ty = 0;
 822              		.loc 1 391 0
 823 00f8 0024     		movs	r4, #0
 824              	.LVL111:
 825 00fa 00E0     		b	.L56
 826              	.LVL112:
 827              	.L74:
 828 00fc 0024     		movs	r4, #0
ARM GAS  C:\Users\wa2n8\AppData\Local\Temp\ccQjiidk.s 			page 23


 829              	.LVL113:
 830              	.L56:
 392:..\..\..\..\PSoC_FatFs-master\PSoC_FatFs_Library/sdcard.c **** 		}
 393:..\..\..\..\PSoC_FatFs-master\PSoC_FatFs_Library/sdcard.c **** 	}
 394:..\..\..\..\PSoC_FatFs-master\PSoC_FatFs_Library/sdcard.c **** 	CardType = ty;
 831              		.loc 1 394 0
 832 00fe 074B     		ldr	r3, .L77
 833 0100 1C70     		strb	r4, [r3]
 395:..\..\..\..\PSoC_FatFs-master\PSoC_FatFs_Library/sdcard.c **** 	s = ty ? 0 : STA_NOINIT;
 834              		.loc 1 395 0
 835 0102 B4FA84F4 		clz	r4, r4
 836              	.LVL114:
 837 0106 6409     		lsrs	r4, r4, #5
 838              	.LVL115:
 396:..\..\..\..\PSoC_FatFs-master\PSoC_FatFs_Library/sdcard.c **** 	Stat = s;
 839              		.loc 1 396 0
 840 0108 054B     		ldr	r3, .L77+4
 841 010a 1C70     		strb	r4, [r3]
 397:..\..\..\..\PSoC_FatFs-master\PSoC_FatFs_Library/sdcard.c **** 
 398:..\..\..\..\PSoC_FatFs-master\PSoC_FatFs_Library/sdcard.c **** 	deselect();
 842              		.loc 1 398 0
 843 010c FFF7FEFF 		bl	deselect
 844              	.LVL116:
 399:..\..\..\..\PSoC_FatFs-master\PSoC_FatFs_Library/sdcard.c **** 
 400:..\..\..\..\PSoC_FatFs-master\PSoC_FatFs_Library/sdcard.c **** 	return s;
 845              		.loc 1 400 0
 846 0110 2046     		mov	r0, r4
 847 0112 01E0     		b	.L53
 848              	.LVL117:
 849              	.L65:
 850              		.cfi_def_cfa_offset 0
 851              		.cfi_restore 4
 852              		.cfi_restore 5
 853              		.cfi_restore 6
 854              		.cfi_restore 14
 360:..\..\..\..\PSoC_FatFs-master\PSoC_FatFs_Library/sdcard.c **** 
 855              		.loc 1 360 0
 856 0114 0320     		movs	r0, #3
 857              	.LVL118:
 858 0116 7047     		bx	lr
 859              	.LVL119:
 860              	.L53:
 861              		.cfi_def_cfa_offset 24
 862              		.cfi_offset 4, -16
 863              		.cfi_offset 5, -12
 864              		.cfi_offset 6, -8
 865              		.cfi_offset 14, -4
 401:..\..\..\..\PSoC_FatFs-master\PSoC_FatFs_Library/sdcard.c **** }
 866              		.loc 1 401 0
 867 0118 02B0     		add	sp, sp, #8
 868              		.cfi_def_cfa_offset 16
 869              		@ sp needed
 870 011a 70BD     		pop	{r4, r5, r6, pc}
 871              	.LVL120:
 872              	.L78:
 873              		.align	2
 874              	.L77:
ARM GAS  C:\Users\wa2n8\AppData\Local\Temp\ccQjiidk.s 			page 24


 875 011c 00000000 		.word	.LANCHOR1
 876 0120 00000000 		.word	.LANCHOR0
 877              		.cfi_endproc
 878              	.LFE72:
 879              		.size	disk_initialize, .-disk_initialize
 880              		.section	.text.disk_read,"ax",%progbits
 881              		.align	2
 882              		.global	disk_read
 883              		.thumb
 884              		.thumb_func
 885              		.type	disk_read, %function
 886              	disk_read:
 887              	.LFB73:
 402:..\..\..\..\PSoC_FatFs-master\PSoC_FatFs_Library/sdcard.c **** 
 403:..\..\..\..\PSoC_FatFs-master\PSoC_FatFs_Library/sdcard.c **** /*-----------------------------------------------------------------------*/
 404:..\..\..\..\PSoC_FatFs-master\PSoC_FatFs_Library/sdcard.c **** /* Read Sector(s)                                                        */
 405:..\..\..\..\PSoC_FatFs-master\PSoC_FatFs_Library/sdcard.c **** /*-----------------------------------------------------------------------*/
 406:..\..\..\..\PSoC_FatFs-master\PSoC_FatFs_Library/sdcard.c **** 
 407:..\..\..\..\PSoC_FatFs-master\PSoC_FatFs_Library/sdcard.c **** DRESULT disk_read(BYTE drv,	BYTE *buff,	DWORD sector, UINT count) /* Physical drive nmuber (0) */
 408:..\..\..\..\PSoC_FatFs-master\PSoC_FatFs_Library/sdcard.c **** {
 888              		.loc 1 408 0
 889              		.cfi_startproc
 890              		@ args = 0, pretend = 0, frame = 0
 891              		@ frame_needed = 0, uses_anonymous_args = 0
 892              	.LVL121:
 893 0000 F8B5     		push	{r3, r4, r5, r6, r7, lr}
 894              		.cfi_def_cfa_offset 24
 895              		.cfi_offset 3, -24
 896              		.cfi_offset 4, -20
 897              		.cfi_offset 5, -16
 898              		.cfi_offset 6, -12
 899              		.cfi_offset 7, -8
 900              		.cfi_offset 14, -4
 901 0002 0D46     		mov	r5, r1
 902 0004 1646     		mov	r6, r2
 903 0006 1C46     		mov	r4, r3
 409:..\..\..\..\PSoC_FatFs-master\PSoC_FatFs_Library/sdcard.c **** 	BYTE cmd;
 410:..\..\..\..\PSoC_FatFs-master\PSoC_FatFs_Library/sdcard.c **** 
 411:..\..\..\..\PSoC_FatFs-master\PSoC_FatFs_Library/sdcard.c **** 	if (disk_status(drv) & STA_NOINIT) return RES_NOTRDY;
 904              		.loc 1 411 0
 905 0008 FFF7FEFF 		bl	disk_status
 906              	.LVL122:
 907 000c 10F0010F 		tst	r0, #1
 908 0010 25D1     		bne	.L86
 412:..\..\..\..\PSoC_FatFs-master\PSoC_FatFs_Library/sdcard.c **** 	if (!(CardType & CT_BLOCK)) sector *= 512;	/* Convert LBA to byte address if needed */
 909              		.loc 1 412 0
 910 0012 144B     		ldr	r3, .L89
 911 0014 1B78     		ldrb	r3, [r3]	@ zero_extendqisi2
 912 0016 13F0080F 		tst	r3, #8
 913 001a 00D1     		bne	.L81
 914              		.loc 1 412 0 is_stmt 0 discriminator 1
 915 001c 7602     		lsls	r6, r6, #9
 916              	.LVL123:
 917              	.L81:
 413:..\..\..\..\PSoC_FatFs-master\PSoC_FatFs_Library/sdcard.c **** 
 414:..\..\..\..\PSoC_FatFs-master\PSoC_FatFs_Library/sdcard.c **** 	cmd = count > 1 ? CMD18 : CMD17;			/*  READ_MULTIPLE_BLOCK : READ_SINGLE_BLOCK */
 918              		.loc 1 414 0 is_stmt 1
ARM GAS  C:\Users\wa2n8\AppData\Local\Temp\ccQjiidk.s 			page 25


 919 001e 012C     		cmp	r4, #1
 920 0020 01D9     		bls	.L87
 921 0022 1227     		movs	r7, #18
 922 0024 00E0     		b	.L82
 923              	.L87:
 924 0026 1127     		movs	r7, #17
 925              	.L82:
 926              	.LVL124:
 415:..\..\..\..\PSoC_FatFs-master\PSoC_FatFs_Library/sdcard.c **** 	if (send_cmd(cmd, sector) == 0) {
 927              		.loc 1 415 0 discriminator 4
 928 0028 3146     		mov	r1, r6
 929 002a 3846     		mov	r0, r7
 930 002c FFF7FEFF 		bl	send_cmd
 931              	.LVL125:
 932 0030 78B9     		cbnz	r0, .L83
 933              	.L85:
 416:..\..\..\..\PSoC_FatFs-master\PSoC_FatFs_Library/sdcard.c **** 		do {
 417:..\..\..\..\PSoC_FatFs-master\PSoC_FatFs_Library/sdcard.c **** 			if (!rcvr_datablock(buff, 512)) break;
 934              		.loc 1 417 0
 935 0032 4FF40071 		mov	r1, #512
 936 0036 2846     		mov	r0, r5
 937 0038 FFF7FEFF 		bl	rcvr_datablock
 938              	.LVL126:
 939 003c 18B1     		cbz	r0, .L84
 418:..\..\..\..\PSoC_FatFs-master\PSoC_FatFs_Library/sdcard.c **** 			buff += 512;
 940              		.loc 1 418 0
 941 003e 05F50075 		add	r5, r5, #512
 942              	.LVL127:
 419:..\..\..\..\PSoC_FatFs-master\PSoC_FatFs_Library/sdcard.c **** 		} while (--count);
 943              		.loc 1 419 0
 944 0042 013C     		subs	r4, r4, #1
 945              	.LVL128:
 946 0044 F5D1     		bne	.L85
 947              	.L84:
 420:..\..\..\..\PSoC_FatFs-master\PSoC_FatFs_Library/sdcard.c **** 		if (cmd == CMD18) send_cmd(CMD12, 0);	/* STOP_TRANSMISSION */
 948              		.loc 1 420 0
 949 0046 122F     		cmp	r7, #18
 950 0048 03D1     		bne	.L83
 951              		.loc 1 420 0 is_stmt 0 discriminator 1
 952 004a 0021     		movs	r1, #0
 953 004c 0C20     		movs	r0, #12
 954 004e FFF7FEFF 		bl	send_cmd
 955              	.LVL129:
 956              	.L83:
 421:..\..\..\..\PSoC_FatFs-master\PSoC_FatFs_Library/sdcard.c **** 	}
 422:..\..\..\..\PSoC_FatFs-master\PSoC_FatFs_Library/sdcard.c **** 	deselect();
 957              		.loc 1 422 0 is_stmt 1
 958 0052 FFF7FEFF 		bl	deselect
 959              	.LVL130:
 423:..\..\..\..\PSoC_FatFs-master\PSoC_FatFs_Library/sdcard.c **** 
 424:..\..\..\..\PSoC_FatFs-master\PSoC_FatFs_Library/sdcard.c **** 	return count ? RES_ERROR : RES_OK;
 960              		.loc 1 424 0
 961 0056 201C     		adds	r0, r4, #0
 962 0058 18BF     		it	ne
 963 005a 0120     		movne	r0, #1
 964 005c F8BD     		pop	{r3, r4, r5, r6, r7, pc}
 965              	.LVL131:
ARM GAS  C:\Users\wa2n8\AppData\Local\Temp\ccQjiidk.s 			page 26


 966              	.L86:
 411:..\..\..\..\PSoC_FatFs-master\PSoC_FatFs_Library/sdcard.c **** 	if (!(CardType & CT_BLOCK)) sector *= 512;	/* Convert LBA to byte address if needed */
 967              		.loc 1 411 0
 968 005e 0320     		movs	r0, #3
 425:..\..\..\..\PSoC_FatFs-master\PSoC_FatFs_Library/sdcard.c **** }
 969              		.loc 1 425 0
 970 0060 F8BD     		pop	{r3, r4, r5, r6, r7, pc}
 971              	.LVL132:
 972              	.L90:
 973 0062 00BF     		.align	2
 974              	.L89:
 975 0064 00000000 		.word	.LANCHOR1
 976              		.cfi_endproc
 977              	.LFE73:
 978              		.size	disk_read, .-disk_read
 979              		.section	.text.disk_write,"ax",%progbits
 980              		.align	2
 981              		.global	disk_write
 982              		.thumb
 983              		.thumb_func
 984              		.type	disk_write, %function
 985              	disk_write:
 986              	.LFB74:
 426:..\..\..\..\PSoC_FatFs-master\PSoC_FatFs_Library/sdcard.c **** 
 427:..\..\..\..\PSoC_FatFs-master\PSoC_FatFs_Library/sdcard.c **** /*-----------------------------------------------------------------------*/
 428:..\..\..\..\PSoC_FatFs-master\PSoC_FatFs_Library/sdcard.c **** /* Write Sector(s)                                                       */
 429:..\..\..\..\PSoC_FatFs-master\PSoC_FatFs_Library/sdcard.c **** /*-----------------------------------------------------------------------*/
 430:..\..\..\..\PSoC_FatFs-master\PSoC_FatFs_Library/sdcard.c **** 
 431:..\..\..\..\PSoC_FatFs-master\PSoC_FatFs_Library/sdcard.c **** DRESULT disk_write (
 432:..\..\..\..\PSoC_FatFs-master\PSoC_FatFs_Library/sdcard.c **** 	BYTE drv,			/* Physical drive nmuber (0) */
 433:..\..\..\..\PSoC_FatFs-master\PSoC_FatFs_Library/sdcard.c **** 	const BYTE *buff,	/* Pointer to the data to be written */
 434:..\..\..\..\PSoC_FatFs-master\PSoC_FatFs_Library/sdcard.c **** 	DWORD sector,		/* Start sector number (LBA) */
 435:..\..\..\..\PSoC_FatFs-master\PSoC_FatFs_Library/sdcard.c **** 	UINT count			/* Sector count (1..128) */
 436:..\..\..\..\PSoC_FatFs-master\PSoC_FatFs_Library/sdcard.c **** )
 437:..\..\..\..\PSoC_FatFs-master\PSoC_FatFs_Library/sdcard.c **** {
 987              		.loc 1 437 0
 988              		.cfi_startproc
 989              		@ args = 0, pretend = 0, frame = 0
 990              		@ frame_needed = 0, uses_anonymous_args = 0
 991              	.LVL133:
 992 0000 70B5     		push	{r4, r5, r6, lr}
 993              		.cfi_def_cfa_offset 16
 994              		.cfi_offset 4, -16
 995              		.cfi_offset 5, -12
 996              		.cfi_offset 6, -8
 997              		.cfi_offset 14, -4
 998 0002 0D46     		mov	r5, r1
 999 0004 1646     		mov	r6, r2
 1000 0006 1C46     		mov	r4, r3
 438:..\..\..\..\PSoC_FatFs-master\PSoC_FatFs_Library/sdcard.c **** 	if (disk_status(drv) & STA_NOINIT) return RES_NOTRDY;
 1001              		.loc 1 438 0
 1002 0008 FFF7FEFF 		bl	disk_status
 1003              	.LVL134:
 1004 000c 10F0010F 		tst	r0, #1
 1005 0010 36D1     		bne	.L99
 439:..\..\..\..\PSoC_FatFs-master\PSoC_FatFs_Library/sdcard.c **** 	if (!(CardType & CT_BLOCK)) sector *= 512;	/* Convert LBA to byte address if needed */
 1006              		.loc 1 439 0
ARM GAS  C:\Users\wa2n8\AppData\Local\Temp\ccQjiidk.s 			page 27


 1007 0012 1C4B     		ldr	r3, .L103
 1008 0014 1B78     		ldrb	r3, [r3]	@ zero_extendqisi2
 1009 0016 13F0080F 		tst	r3, #8
 1010 001a 00D1     		bne	.L93
 1011              		.loc 1 439 0 is_stmt 0 discriminator 1
 1012 001c 7602     		lsls	r6, r6, #9
 1013              	.LVL135:
 1014              	.L93:
 440:..\..\..\..\PSoC_FatFs-master\PSoC_FatFs_Library/sdcard.c **** 
 441:..\..\..\..\PSoC_FatFs-master\PSoC_FatFs_Library/sdcard.c **** 	if (count == 1) {	/* Single block write */
 1015              		.loc 1 441 0 is_stmt 1
 1016 001e 012C     		cmp	r4, #1
 1017 0020 0AD1     		bne	.L94
 442:..\..\..\..\PSoC_FatFs-master\PSoC_FatFs_Library/sdcard.c **** 		if ((send_cmd(CMD24, sector) == 0)	/* WRITE_BLOCK */
 1018              		.loc 1 442 0
 1019 0022 3146     		mov	r1, r6
 1020 0024 1820     		movs	r0, #24
 1021 0026 FFF7FEFF 		bl	send_cmd
 1022              	.LVL136:
 1023 002a 18BB     		cbnz	r0, .L95
 443:..\..\..\..\PSoC_FatFs-master\PSoC_FatFs_Library/sdcard.c **** 			&& xmit_datablock(buff, 0xFE))
 1024              		.loc 1 443 0
 1025 002c FE21     		movs	r1, #254
 1026 002e 2846     		mov	r0, r5
 1027 0030 FFF7FEFF 		bl	xmit_datablock
 1028              	.LVL137:
 1029 0034 D8B9     		cbnz	r0, .L100
 1030 0036 1DE0     		b	.L95
 1031              	.L94:
 444:..\..\..\..\PSoC_FatFs-master\PSoC_FatFs_Library/sdcard.c **** 			count = 0;
 445:..\..\..\..\PSoC_FatFs-master\PSoC_FatFs_Library/sdcard.c **** 	}
 446:..\..\..\..\PSoC_FatFs-master\PSoC_FatFs_Library/sdcard.c **** 	else {				/* Multiple block write */
 447:..\..\..\..\PSoC_FatFs-master\PSoC_FatFs_Library/sdcard.c **** 		if (CardType & CT_SDC) send_cmd(ACMD23, count);
 1032              		.loc 1 447 0
 1033 0038 13F0060F 		tst	r3, #6
 1034 003c 03D0     		beq	.L96
 1035              		.loc 1 447 0 is_stmt 0 discriminator 1
 1036 003e 2146     		mov	r1, r4
 1037 0040 9720     		movs	r0, #151
 1038 0042 FFF7FEFF 		bl	send_cmd
 1039              	.LVL138:
 1040              	.L96:
 448:..\..\..\..\PSoC_FatFs-master\PSoC_FatFs_Library/sdcard.c **** 		if (send_cmd(CMD25, sector) == 0) {	/* WRITE_MULTIPLE_BLOCK */
 1041              		.loc 1 448 0 is_stmt 1
 1042 0046 3146     		mov	r1, r6
 1043 0048 1920     		movs	r0, #25
 1044 004a FFF7FEFF 		bl	send_cmd
 1045              	.LVL139:
 1046 004e 88B9     		cbnz	r0, .L95
 1047              	.L98:
 449:..\..\..\..\PSoC_FatFs-master\PSoC_FatFs_Library/sdcard.c **** 			do {
 450:..\..\..\..\PSoC_FatFs-master\PSoC_FatFs_Library/sdcard.c **** 				if (!xmit_datablock(buff, 0xFC)) break;
 1048              		.loc 1 450 0
 1049 0050 FC21     		movs	r1, #252
 1050 0052 2846     		mov	r0, r5
 1051 0054 FFF7FEFF 		bl	xmit_datablock
 1052              	.LVL140:
ARM GAS  C:\Users\wa2n8\AppData\Local\Temp\ccQjiidk.s 			page 28


 1053 0058 18B1     		cbz	r0, .L97
 451:..\..\..\..\PSoC_FatFs-master\PSoC_FatFs_Library/sdcard.c **** 				buff += 512;
 1054              		.loc 1 451 0
 1055 005a 05F50075 		add	r5, r5, #512
 1056              	.LVL141:
 452:..\..\..\..\PSoC_FatFs-master\PSoC_FatFs_Library/sdcard.c **** 			} while (--count);
 1057              		.loc 1 452 0
 1058 005e 013C     		subs	r4, r4, #1
 1059              	.LVL142:
 1060 0060 F6D1     		bne	.L98
 1061              	.L97:
 453:..\..\..\..\PSoC_FatFs-master\PSoC_FatFs_Library/sdcard.c **** 			if (!xmit_datablock(0, 0xFD))	/* STOP_TRAN token */
 1062              		.loc 1 453 0
 1063 0062 FD21     		movs	r1, #253
 1064 0064 0020     		movs	r0, #0
 1065 0066 FFF7FEFF 		bl	xmit_datablock
 1066              	.LVL143:
 1067 006a 10B1     		cbz	r0, .L101
 1068 006c 02E0     		b	.L95
 1069              	.L100:
 444:..\..\..\..\PSoC_FatFs-master\PSoC_FatFs_Library/sdcard.c **** 	}
 1070              		.loc 1 444 0
 1071 006e 0024     		movs	r4, #0
 1072              	.LVL144:
 1073 0070 00E0     		b	.L95
 1074              	.LVL145:
 1075              	.L101:
 454:..\..\..\..\PSoC_FatFs-master\PSoC_FatFs_Library/sdcard.c **** 				count = 1;
 1076              		.loc 1 454 0
 1077 0072 0124     		movs	r4, #1
 1078              	.LVL146:
 1079              	.L95:
 455:..\..\..\..\PSoC_FatFs-master\PSoC_FatFs_Library/sdcard.c **** 		}
 456:..\..\..\..\PSoC_FatFs-master\PSoC_FatFs_Library/sdcard.c **** 	}
 457:..\..\..\..\PSoC_FatFs-master\PSoC_FatFs_Library/sdcard.c **** 	deselect();
 1080              		.loc 1 457 0
 1081 0074 FFF7FEFF 		bl	deselect
 1082              	.LVL147:
 458:..\..\..\..\PSoC_FatFs-master\PSoC_FatFs_Library/sdcard.c **** 
 459:..\..\..\..\PSoC_FatFs-master\PSoC_FatFs_Library/sdcard.c **** 	return count ? RES_ERROR : RES_OK;
 1083              		.loc 1 459 0
 1084 0078 201C     		adds	r0, r4, #0
 1085 007a 18BF     		it	ne
 1086 007c 0120     		movne	r0, #1
 1087 007e 70BD     		pop	{r4, r5, r6, pc}
 1088              	.LVL148:
 1089              	.L99:
 438:..\..\..\..\PSoC_FatFs-master\PSoC_FatFs_Library/sdcard.c **** 	if (!(CardType & CT_BLOCK)) sector *= 512;	/* Convert LBA to byte address if needed */
 1090              		.loc 1 438 0
 1091 0080 0320     		movs	r0, #3
 460:..\..\..\..\PSoC_FatFs-master\PSoC_FatFs_Library/sdcard.c **** }
 1092              		.loc 1 460 0
 1093 0082 70BD     		pop	{r4, r5, r6, pc}
 1094              	.LVL149:
 1095              	.L104:
 1096              		.align	2
 1097              	.L103:
ARM GAS  C:\Users\wa2n8\AppData\Local\Temp\ccQjiidk.s 			page 29


 1098 0084 00000000 		.word	.LANCHOR1
 1099              		.cfi_endproc
 1100              	.LFE74:
 1101              		.size	disk_write, .-disk_write
 1102              		.section	.text.disk_ioctl,"ax",%progbits
 1103              		.align	2
 1104              		.global	disk_ioctl
 1105              		.thumb
 1106              		.thumb_func
 1107              		.type	disk_ioctl, %function
 1108              	disk_ioctl:
 1109              	.LFB75:
 461:..\..\..\..\PSoC_FatFs-master\PSoC_FatFs_Library/sdcard.c **** 
 462:..\..\..\..\PSoC_FatFs-master\PSoC_FatFs_Library/sdcard.c **** 
 463:..\..\..\..\PSoC_FatFs-master\PSoC_FatFs_Library/sdcard.c **** /*-----------------------------------------------------------------------*/
 464:..\..\..\..\PSoC_FatFs-master\PSoC_FatFs_Library/sdcard.c **** /* Miscellaneous Functions                                               */
 465:..\..\..\..\PSoC_FatFs-master\PSoC_FatFs_Library/sdcard.c **** /*-----------------------------------------------------------------------*/
 466:..\..\..\..\PSoC_FatFs-master\PSoC_FatFs_Library/sdcard.c **** 
 467:..\..\..\..\PSoC_FatFs-master\PSoC_FatFs_Library/sdcard.c **** DRESULT disk_ioctl (
 468:..\..\..\..\PSoC_FatFs-master\PSoC_FatFs_Library/sdcard.c **** 	BYTE drv,		/* Physical drive nmuber (0) */
 469:..\..\..\..\PSoC_FatFs-master\PSoC_FatFs_Library/sdcard.c **** 	BYTE ctrl,		/* Control code */
 470:..\..\..\..\PSoC_FatFs-master\PSoC_FatFs_Library/sdcard.c **** 	void *buff		/* Buffer to send/receive control data */
 471:..\..\..\..\PSoC_FatFs-master\PSoC_FatFs_Library/sdcard.c **** )
 472:..\..\..\..\PSoC_FatFs-master\PSoC_FatFs_Library/sdcard.c **** {
 1110              		.loc 1 472 0
 1111              		.cfi_startproc
 1112              		@ args = 0, pretend = 0, frame = 16
 1113              		@ frame_needed = 0, uses_anonymous_args = 0
 1114              	.LVL150:
 1115 0000 30B5     		push	{r4, r5, lr}
 1116              		.cfi_def_cfa_offset 12
 1117              		.cfi_offset 4, -12
 1118              		.cfi_offset 5, -8
 1119              		.cfi_offset 14, -4
 1120 0002 85B0     		sub	sp, sp, #20
 1121              		.cfi_def_cfa_offset 32
 1122 0004 0C46     		mov	r4, r1
 1123 0006 1546     		mov	r5, r2
 473:..\..\..\..\PSoC_FatFs-master\PSoC_FatFs_Library/sdcard.c **** 	DRESULT res;
 474:..\..\..\..\PSoC_FatFs-master\PSoC_FatFs_Library/sdcard.c **** 	BYTE n, csd[16];
 475:..\..\..\..\PSoC_FatFs-master\PSoC_FatFs_Library/sdcard.c **** 	DWORD cs;
 476:..\..\..\..\PSoC_FatFs-master\PSoC_FatFs_Library/sdcard.c **** 
 477:..\..\..\..\PSoC_FatFs-master\PSoC_FatFs_Library/sdcard.c **** 
 478:..\..\..\..\PSoC_FatFs-master\PSoC_FatFs_Library/sdcard.c **** 	if (disk_status(drv) & STA_NOINIT) return RES_NOTRDY;	/* Check if card is in the socket */
 1124              		.loc 1 478 0
 1125 0008 FFF7FEFF 		bl	disk_status
 1126              	.LVL151:
 1127 000c 10F0010F 		tst	r0, #1
 1128 0010 60D1     		bne	.L112
 1129              	.LVL152:
 479:..\..\..\..\PSoC_FatFs-master\PSoC_FatFs_Library/sdcard.c **** 
 480:..\..\..\..\PSoC_FatFs-master\PSoC_FatFs_Library/sdcard.c **** 	res = RES_ERROR;
 481:..\..\..\..\PSoC_FatFs-master\PSoC_FatFs_Library/sdcard.c **** 	switch (ctrl) {
 1130              		.loc 1 481 0
 1131 0012 012C     		cmp	r4, #1
 1132 0014 09D0     		beq	.L108
 1133 0016 14B1     		cbz	r4, .L109
ARM GAS  C:\Users\wa2n8\AppData\Local\Temp\ccQjiidk.s 			page 30


 1134 0018 032C     		cmp	r4, #3
 1135 001a 4CD0     		beq	.L110
 1136 001c 4FE0     		b	.L117
 1137              	.L109:
 482:..\..\..\..\PSoC_FatFs-master\PSoC_FatFs_Library/sdcard.c **** 		case CTRL_SYNC :		/* Make sure that no pending write process */
 483:..\..\..\..\PSoC_FatFs-master\PSoC_FatFs_Library/sdcard.c **** 			if (select()) res = RES_OK;
 1138              		.loc 1 483 0
 1139 001e FFF7FEFF 		bl	select
 1140              	.LVL153:
 1141 0022 0028     		cmp	r0, #0
 1142 0024 4DD1     		bne	.L114
 480:..\..\..\..\PSoC_FatFs-master\PSoC_FatFs_Library/sdcard.c **** 	switch (ctrl) {
 1143              		.loc 1 480 0
 1144 0026 0124     		movs	r4, #1
 1145 0028 50E0     		b	.L107
 1146              	.L108:
 484:..\..\..\..\PSoC_FatFs-master\PSoC_FatFs_Library/sdcard.c **** 			break;
 485:..\..\..\..\PSoC_FatFs-master\PSoC_FatFs_Library/sdcard.c **** 
 486:..\..\..\..\PSoC_FatFs-master\PSoC_FatFs_Library/sdcard.c **** 		case GET_SECTOR_COUNT :	/* Get number of sectors on the disk (DWORD) */
 487:..\..\..\..\PSoC_FatFs-master\PSoC_FatFs_Library/sdcard.c **** 			if ((send_cmd(CMD9, 0) == 0) && rcvr_datablock(csd, 16)) {
 1147              		.loc 1 487 0
 1148 002a 0021     		movs	r1, #0
 1149 002c 0920     		movs	r0, #9
 1150 002e FFF7FEFF 		bl	send_cmd
 1151              	.LVL154:
 1152 0032 0028     		cmp	r0, #0
 1153 0034 47D1     		bne	.L115
 1154              		.loc 1 487 0 is_stmt 0 discriminator 1
 1155 0036 1021     		movs	r1, #16
 1156 0038 6846     		mov	r0, sp
 1157 003a FFF7FEFF 		bl	rcvr_datablock
 1158              	.LVL155:
 1159 003e 0028     		cmp	r0, #0
 1160 0040 43D0     		beq	.L116
 488:..\..\..\..\PSoC_FatFs-master\PSoC_FatFs_Library/sdcard.c **** 				if ((csd[0] >> 6) == 1) {	/* SDC ver 2.00 */
 1161              		.loc 1 488 0 is_stmt 1
 1162 0042 9DF80030 		ldrb	r3, [sp]	@ zero_extendqisi2
 1163 0046 9B09     		lsrs	r3, r3, #6
 1164 0048 012B     		cmp	r3, #1
 1165 004a 10D1     		bne	.L111
 489:..\..\..\..\PSoC_FatFs-master\PSoC_FatFs_Library/sdcard.c **** 					cs = csd[9] + ((WORD)csd[8] << 8) + ((DWORD)(csd[7] & 63) << 16) + 1;
 1166              		.loc 1 489 0
 1167 004c 9DF80930 		ldrb	r3, [sp, #9]	@ zero_extendqisi2
 1168 0050 9DF80820 		ldrb	r2, [sp, #8]	@ zero_extendqisi2
 1169 0054 03EB0222 		add	r2, r3, r2, lsl #8
 1170 0058 9DF80730 		ldrb	r3, [sp, #7]	@ zero_extendqisi2
 1171 005c 1B04     		lsls	r3, r3, #16
 1172 005e 03F47C13 		and	r3, r3, #4128768
 1173 0062 1344     		add	r3, r3, r2
 1174 0064 0133     		adds	r3, r3, #1
 1175              	.LVL156:
 490:..\..\..\..\PSoC_FatFs-master\PSoC_FatFs_Library/sdcard.c **** 					*(DWORD*)buff = cs << 10;
 1176              		.loc 1 490 0
 1177 0066 9B02     		lsls	r3, r3, #10
 1178              	.LVL157:
 1179 0068 2B60     		str	r3, [r5]
 1180              	.LVL158:
ARM GAS  C:\Users\wa2n8\AppData\Local\Temp\ccQjiidk.s 			page 31


 491:..\..\..\..\PSoC_FatFs-master\PSoC_FatFs_Library/sdcard.c **** 				} else {					/* SDC ver 1.XX or MMC */
 492:..\..\..\..\PSoC_FatFs-master\PSoC_FatFs_Library/sdcard.c **** 					n = (csd[5] & 15) + ((csd[10] & 128) >> 7) + ((csd[9] & 3) << 1) + 2;
 493:..\..\..\..\PSoC_FatFs-master\PSoC_FatFs_Library/sdcard.c **** 					cs = (csd[8] >> 6) + ((WORD)csd[7] << 2) + ((WORD)(csd[6] & 3) << 10) + 1;
 494:..\..\..\..\PSoC_FatFs-master\PSoC_FatFs_Library/sdcard.c **** 					*(DWORD*)buff = cs << (n - 9);
 495:..\..\..\..\PSoC_FatFs-master\PSoC_FatFs_Library/sdcard.c **** 				}
 496:..\..\..\..\PSoC_FatFs-master\PSoC_FatFs_Library/sdcard.c **** 				res = RES_OK;
 1181              		.loc 1 496 0
 1182 006a 0024     		movs	r4, #0
 1183 006c 2EE0     		b	.L107
 1184              	.L111:
 492:..\..\..\..\PSoC_FatFs-master\PSoC_FatFs_Library/sdcard.c **** 					cs = (csd[8] >> 6) + ((WORD)csd[7] << 2) + ((WORD)(csd[6] & 3) << 10) + 1;
 1185              		.loc 1 492 0
 1186 006e 9DF80520 		ldrb	r2, [sp, #5]	@ zero_extendqisi2
 1187 0072 9DF80A10 		ldrb	r1, [sp, #10]	@ zero_extendqisi2
 1188 0076 9DF80930 		ldrb	r3, [sp, #9]	@ zero_extendqisi2
 1189 007a 5B00     		lsls	r3, r3, #1
 1190 007c 02F00F02 		and	r2, r2, #15
 1191 0080 02EBD112 		add	r2, r2, r1, lsr #7
 1192 0084 03F00603 		and	r3, r3, #6
 1193 0088 1344     		add	r3, r3, r2
 1194 008a 0233     		adds	r3, r3, #2
 1195 008c DBB2     		uxtb	r3, r3
 1196              	.LVL159:
 493:..\..\..\..\PSoC_FatFs-master\PSoC_FatFs_Library/sdcard.c **** 					*(DWORD*)buff = cs << (n - 9);
 1197              		.loc 1 493 0
 1198 008e 9DF80810 		ldrb	r1, [sp, #8]	@ zero_extendqisi2
 1199 0092 9DF80720 		ldrb	r2, [sp, #7]	@ zero_extendqisi2
 1200 0096 9200     		lsls	r2, r2, #2
 1201 0098 02EB9111 		add	r1, r2, r1, lsr #6
 1202 009c 9DF80620 		ldrb	r2, [sp, #6]	@ zero_extendqisi2
 1203 00a0 9202     		lsls	r2, r2, #10
 1204 00a2 02F44062 		and	r2, r2, #3072
 1205 00a6 0A44     		add	r2, r2, r1
 1206 00a8 0132     		adds	r2, r2, #1
 1207              	.LVL160:
 494:..\..\..\..\PSoC_FatFs-master\PSoC_FatFs_Library/sdcard.c **** 				}
 1208              		.loc 1 494 0
 1209 00aa 093B     		subs	r3, r3, #9
 1210              	.LVL161:
 1211 00ac 02FA03F3 		lsl	r3, r2, r3
 1212              	.LVL162:
 1213 00b0 2B60     		str	r3, [r5]
 1214              	.LVL163:
 1215              		.loc 1 496 0
 1216 00b2 0024     		movs	r4, #0
 1217 00b4 0AE0     		b	.L107
 1218              	.LVL164:
 1219              	.L110:
 497:..\..\..\..\PSoC_FatFs-master\PSoC_FatFs_Library/sdcard.c **** 			}
 498:..\..\..\..\PSoC_FatFs-master\PSoC_FatFs_Library/sdcard.c **** 			break;
 499:..\..\..\..\PSoC_FatFs-master\PSoC_FatFs_Library/sdcard.c **** 
 500:..\..\..\..\PSoC_FatFs-master\PSoC_FatFs_Library/sdcard.c **** 		case GET_BLOCK_SIZE :	/* Get erase block size in unit of sector (DWORD) */
 501:..\..\..\..\PSoC_FatFs-master\PSoC_FatFs_Library/sdcard.c **** 			*(DWORD*)buff = 128;
 1220              		.loc 1 501 0
 1221 00b6 8023     		movs	r3, #128
 1222 00b8 2B60     		str	r3, [r5]
 1223              	.LVL165:
ARM GAS  C:\Users\wa2n8\AppData\Local\Temp\ccQjiidk.s 			page 32


 502:..\..\..\..\PSoC_FatFs-master\PSoC_FatFs_Library/sdcard.c **** 			res = RES_OK;
 1224              		.loc 1 502 0
 1225 00ba 0024     		movs	r4, #0
 503:..\..\..\..\PSoC_FatFs-master\PSoC_FatFs_Library/sdcard.c **** 			break;
 1226              		.loc 1 503 0
 1227 00bc 06E0     		b	.L107
 1228              	.LVL166:
 1229              	.L117:
 504:..\..\..\..\PSoC_FatFs-master\PSoC_FatFs_Library/sdcard.c **** 
 505:..\..\..\..\PSoC_FatFs-master\PSoC_FatFs_Library/sdcard.c **** 		default:
 506:..\..\..\..\PSoC_FatFs-master\PSoC_FatFs_Library/sdcard.c **** 			res = RES_PARERR;
 1230              		.loc 1 506 0
 1231 00be 0424     		movs	r4, #4
 1232 00c0 04E0     		b	.L107
 1233              	.L114:
 483:..\..\..\..\PSoC_FatFs-master\PSoC_FatFs_Library/sdcard.c **** 			break;
 1234              		.loc 1 483 0
 1235 00c2 0024     		movs	r4, #0
 1236 00c4 02E0     		b	.L107
 1237              	.L115:
 480:..\..\..\..\PSoC_FatFs-master\PSoC_FatFs_Library/sdcard.c **** 	switch (ctrl) {
 1238              		.loc 1 480 0
 1239 00c6 0124     		movs	r4, #1
 1240 00c8 00E0     		b	.L107
 1241              	.L116:
 1242 00ca 0124     		movs	r4, #1
 1243              	.LVL167:
 1244              	.L107:
 507:..\..\..\..\PSoC_FatFs-master\PSoC_FatFs_Library/sdcard.c **** 	}
 508:..\..\..\..\PSoC_FatFs-master\PSoC_FatFs_Library/sdcard.c **** 
 509:..\..\..\..\PSoC_FatFs-master\PSoC_FatFs_Library/sdcard.c **** 	deselect();
 1245              		.loc 1 509 0
 1246 00cc FFF7FEFF 		bl	deselect
 1247              	.LVL168:
 510:..\..\..\..\PSoC_FatFs-master\PSoC_FatFs_Library/sdcard.c **** 
 511:..\..\..\..\PSoC_FatFs-master\PSoC_FatFs_Library/sdcard.c **** 	return res;
 1248              		.loc 1 511 0
 1249 00d0 2046     		mov	r0, r4
 1250 00d2 00E0     		b	.L106
 1251              	.LVL169:
 1252              	.L112:
 478:..\..\..\..\PSoC_FatFs-master\PSoC_FatFs_Library/sdcard.c **** 
 1253              		.loc 1 478 0
 1254 00d4 0320     		movs	r0, #3
 1255              	.L106:
 512:..\..\..\..\PSoC_FatFs-master\PSoC_FatFs_Library/sdcard.c **** }
 1256              		.loc 1 512 0
 1257 00d6 05B0     		add	sp, sp, #20
 1258              		.cfi_def_cfa_offset 12
 1259              		@ sp needed
 1260 00d8 30BD     		pop	{r4, r5, pc}
 1261              		.cfi_endproc
 1262              	.LFE75:
 1263              		.size	disk_ioctl, .-disk_ioctl
 1264 00da 00BF     		.data
 1265              		.set	.LANCHOR0,. + 0
 1266              		.type	Stat, %object
ARM GAS  C:\Users\wa2n8\AppData\Local\Temp\ccQjiidk.s 			page 33


 1267              		.size	Stat, 1
 1268              	Stat:
 1269 0000 01       		.byte	1
 1270              		.bss
 1271              		.set	.LANCHOR1,. + 0
 1272              		.type	CardType, %object
 1273              		.size	CardType, 1
 1274              	CardType:
 1275 0000 00       		.space	1
 1276              		.text
 1277              	.Letext0:
 1278              		.file 2 "..\\..\\..\\..\\PSoC_FatFs-master\\PSoC_FatFs_Library\\integer.h"
 1279              		.file 3 "..\\..\\..\\..\\PSoC_FatFs-master\\PSoC_FatFs_Library\\diskio.h"
 1280              		.file 4 "c:\\program files (x86)\\cypress\\psoc creator\\4.2\\psoc creator\\import\\gnu\\arm\\5.4.
 1281              		.file 5 "c:\\program files (x86)\\cypress\\psoc creator\\4.2\\psoc creator\\import\\gnu\\arm\\5.4.
 1282              		.file 6 "Generated_Source\\PSoC5/CyLib.h"
 1283              		.file 7 "Generated_Source\\PSoC5/core_cm3.h"